; ModuleID = '/Users/cijiexia/Project/lljb/test/cpp/md5.cpp'
source_filename = "/Users/cijiexia/Project/lljb/test/cpp/md5.cpp"
target datalayout = "e-m:o-i64:64-f80:128-n8:16:32:64-S128"
target triple = "x86_64-apple-macosx10.14.0"

%struct.timespec = type { i64, i64 }

@.str = private unnamed_addr constant [4 x i8] c"%x\0A\00", align 1
@.str.1 = private unnamed_addr constant [10213 x i8] c"rcABJf7Dnv6wMWDHzUYXX0IH2lG0CtN8srdHoAKxd2ymbaw5eyc8PEAtOrnc1rax2nZbIhZn  fs7o3UAsHNkm6VsLH9u3E5vXmtMcVQsMWyctZWu5zwqABtrGwpQgjQ37O9bv6X1nKlExblyFuCVNQA1UpOGW8Lfe2PV  zZy87VDJSC2pWixIg4dmY0MNrX7WUSLdAXFqus90fjHGvFM7Omc7DHY9ZCFZWf6K3HwEmRr7gvHOFEsx7DGsSALPPCC  HPE9D1VASKkhzRihtQ5zx7eTGs48JnAlVcfVElhnAvwMXwvIcc5IR7FPSeRtZfzxK5MY6eptUIB9aUm0ejxajb10Op0b  Z9qqhF54NbYvpkfEmGAUeaPSVTNnLDXkKk5NYk7XhNzSome71Y7ac4iMPJZgt8ecubtVjS2oi3c9QLMLVGQomdeGyE7WG  tTQTUh98DEVdivFHi7Trn8s2l7pFI5CMPva5nxz8pq1Fs3s1RkplR1j1F5BbwSpQesmCtOlBezfnIGyGXDv8atJB2Rp7UT  b7PuoToxnVohc53bRoNb6NkeQyitQ6UXPsCrtKlKGke5Nh5vP8LVtatlqe2fqYR93Hav2FuRNOM85LEzng5vNAshMZ9g  TWNoksv0akcjOffE3EvOThd3m3Pe0k23FZWYkM1SldhZmXcsFVZWJpdVozMRRaQmSSMXURIuUeBAiiUOf9x8uLgsu8UH  35sm3VK4DfIhlHjXUfLTiZgjWyCxV9nkpdmR7Ysaif18WH8HMCbFiad4mWAdp4RDvEpAiFOSqVlCtgs8qmo7XYNyuCo8  jBguJ0RNbamILpNWxTAOvRGOTCqUjcbCPgaAv15mbZzeGrnDcMNTAm7MYck8DITGTkfkrYgJdr2g4JCwk2Zs2BfrP6jp  AhBjyFlPOZeK1ix6IEqzRHpIbavWobTvGDdp85z5rwUuSDLUNDqxEV6aDNZGp7PeIwHVgv6jPRVoR6snIsm2Is7NCStE  xTg4nEBtjp5Dg3ZvdSVuhKEqtfxIX54y3Y34WZaGxcbhX6wIVC55wYMgbXGlbNAnWndOJdh36OPlDERXfPY7CWy7MiOe  HU9eTI4nUtkt5DArdzH1Yw1GI9CEDnIyHhJTZQOVXEgPqKfStc137gJYGIlJFOvOlxzVoXK3Cnp4F6xYLnHnpYQxvaAj  njDQp8ECDaXSE9R9s0j6UMWDOI8uVkRkO8xs2BEk6aKBeIFGxBu1BE7E7nQYvP3j7nf60J3PjfaCM3MuuXK3cteeIMj2v  MnEDZjX6hN2E2MKATHfPvJqw8YCCnnc0fBS1WEs8j270aleRXhNA4EwNQOxEb3qjl7XRV5OQCihy1ePb9fLawxhLgdnr0  1ps1TYVf4BWGoB3XcqQEWYW2h7aW1XEDxHosk1ccw7fXmSwzhDPwdJzvMNNrEttncopt3rje4YI6SFkDNOR1sjFXpiry8  RV5r1hZTdHZPTALMhhqWQaUi34HMpIAyyCit7lLToBUlJ27CWVH1hkf3AjNFrituc6VJdbfo9JnJsqY9amkqa61VKiMqy  R1cGgApuWI6QFa8KrYdb0TeXaiYVmixxaQn852a4HxGzn4Lv9xXi5dEICGJSxhJ0wJ4o398fCiertQheML7ucq5QWJwwW  5BkVh8g7ilmDiS0LRpoeEKp6FZEGAgUQnRKnOAIBHPPBosuM9hhsztrBfINXK7yCpRY6inLB0wPIEbL1V4JfNNFMmWhYQ  w5dyOTAO5Ck2vBO1bjbDW3GOj3WaVP0LCv0EhPkaoyBFQYqj7PkbMXIo2p3efqp7zYxrpwLxpVsooNAqH1Hqsz3SkUKXt  U8QPpUCgySdWy4sIhQTk7yro1tPyOtSkGzr3oVtgYHXASMSQSb97cpSvMDs6bnNo3p0Bss3EM6xgQ0TuWBEGG7TXBbYSu  CNQWfYkl3uZX41smUO0NYExaPlBCrHSrinOE25lXANsZ2pJ7fqwhdkCG6n92IK5uuOdK2Rz172MZYqRNSiRdGTrCUjjBU  yZHs6t7mfl3wi1WegrsndJHCqAtP18DBo8Aa3Sfdvp0v9rKeQBKpDxYhdUNqbaPsnJxS23YxjmDvGQknW2xjIfUs40WUQ  fieJvBJ4vvUTfcgwgtzjTuYjwfnSsH6GcD6PI1XRifUTq6EZFBHlVObHf80TindFGyOJWHuVk1ComJgYPRGo1MeASywSg  C1kIdJdGK4WGtpfWX5VgtYthEZzUs78oW3OCJtio3dXxzoHP2O17Cp5CiGMKlQ0APjAbFg23ManflHSIqrpVrC3l6WdW4  iuyn5pg5WGS7UIWkbCU6LIN2nQtexhKOK9eUGGU3Vb9dJjGxDyHVuxlfz6xJ2AyXHpvqRmFFIjkV6xFPiH6tZIJyzxVTO  3L1C7dXK4zYq8ixRnW6sIR9HpUxG1S5NXWuAc6VElttQryDDovuqU0mUADmL0oyaHUkVxc6JEUvtvdzk9mJLpb5dDlJQi  tD1A1vO41B6mAGWDUTlYJhAWBaEcDB9PY6CJhrsbxnKfCfFtktcxsUv8LXWclakk9H5THVia59CzM5eMB652bKNj24XAR  xFwaj6s6FPcNUyl9Ve4CYNcq8KzP1siWD4RSs7F6dy0PeRGp2LinxJ5CgndakAGRwfb0AETj2sZbg0UnN1yj6u8KJq5HI  P1iCRx2PyEHEMpWbfrmEKYvim9m8XcY8nsG1X5nnkrw4yQJhFPXEodBwqQqnEd2l31oVEkEx2TsYrgsYgHqGALHcmzQkv  rdfYoReGUshmwDJaRthKzNPVpoKbBiuws9JOHGXUISvgOxaO4YKXKnoUeiveZY0KzcNrlsAvM7yg2OwZA1NluaqUUDine  h8F2vqv3jGXtr0DFsmILeM7j50VwEnueTWqWtUOhNdEikbrSBdZqS2lLZnQbeOVji1ApSeT5mBTOV0BChMFTHAgvnNGoD  HXMd8pKSqAOn8MVmsyPy2yptKVR04YqGtZhDvSO2bAQeL4jGaoe801qeG8xORdB5eSMM9zzXMAmdCdLfMMa741e26zagZ  U9RbnLoKT5S8Ln7FlYHyQoTHs0gERxILNZbnYcXTiuPyvufG5EbOnzCxhfhvy19P7TophY8ZPAxDPHzq0wyROnVu9nKFg  LwWO2PgGuBq0uB0dK6Qb1AwIT4H6LSfhGFlg4Bw8rUUQICyMqcBU1Fltcsv2vxxAVZPpuHC55f8WLwqOKzvJeJDRnbxuj  cr1qnz9dvX7H6Yi4njBaYE7yeTi8GJORQG5jIuwTlJEHFC3oxErvkwMedlhFPDHvFf1mImSEso4J2D16CUVFn6tC2eqfR  45g9iLU4pkg4Eyr1tmgeSb5JDtYnxaGweharwmTiT8mp161brmqUuocdC1v745Na1Z0qmEmvLdJmdTPTpgLqeeUV0VfDp  9cf4OAR9cgpTkeGhJKT7lIFjL31z9BiuLJ0SNSZpZJpTlkPnrWnYuNFTcRkoN3Tq5keeQNk6BUCgqP8vWeprENBpkLBq0  IshHtqto4pm5Q3dBecGz6L6iMzX44Zk9X3qXUhaojDJ5urQ5Gn2mzfdXEDSdF2tIXxN54tNnK5r8y7M5H1hdARSSpuWkU  1s72NX8ryQhxSpxRPXXjvrAI9EkBs6enyt255berOFxqcoUU4xWS42ezcLcbWl3OcQvGLXjCSBav3ual1FBFUBnhBRx9f  Y1oH60VKtwGTOfPQykqEujwXB4E2H1Xo4fMTbHCzCR6ZwxO79YRbYN50fys3AJK3eaxtkuT5dTbGyIFG51KXG9V2Ju91o  IeSKdvg7hCxurps8CgVBMPEeaLEgttECxjK45k1dNkw4APzEWAl962friBCMPt8ZFwQNWnUmwR3HHiKmk3Oi1YCmYP3wD  3AZbnusC3M8Nb0Mpa44FSdH0lyjgnWxQWAKwqw1nr6Zg84Xgzqkoa0DLmwiwBbYsRsAbKB37juKoc0f9tKO2Ds1IbBM12  i7t1CF8IUrRq6s1B4MfnBFWFtqwDKQHL6UINGqFg1JxQ61qFVYBa1WUzDaNTQiTPlet1Id92Az8QuMKPwySW3h5HaF91r  Rm3EiJdVT78ssR7cdFFpfOz0FRlXfBUk6b7UW4JovoKClGEcVeNyfrJidTBNLCb76iJwDzD8XvAceDzQBzIbeNkBrMCSP  qJVp8oKTqG2gB0xbpwbA6TP4hkbuteeGHr504jNdZfpljUuljSafrE33SW8dzPy6lwhJaPZq8DBpKTT873YWcSobPhP3b  VsEQzr2ugxcaTPhHm7zAoNy4eJbjkgIA7LiqtBpMO4mPQBSpGh2NLMq4Kgw2myeikVYbckqvExC0peNEOxcMiRXi4fKY7  wkI9dDa5aOzSEBFvrBU8R4PfHoWDCvqo7PccTNBtoIte48wKTKfsjJupgDDVBfeVrpyKGkp9VjfLV7SwXOxjJnjFXFMIA  OCjWz8WZDw9tEpACgfyDoxFhKS55dsw24uKxC44KSgHLd0lvXlNzRjLHh0r8jtvlHQUz43AP25Pqjss5xCDL1KOB2fliI  we8cvP78pNLyeThIVdHJcz7Tm8MhZkz60JhosHoiV9psbtG0iw1AKEs4tIuYAK3W3pFAxg8m7d5trvXzLpIpddhs11hhf  nsRvPEjEfFjJBUVC0fMhUitdpl0G0UPOrP1MozPsUDEtO3szjwhatuYq7pFNrGlsCvsjBOfGyOMgi4mKNbeIIGMkp7KYk  UpZUiE0LpsaLM9Y7LPyGMtQ8OfXddHLA9WiwojNWVKfSXY2hiMHEupc3ZJMmp0b9vNroN4718ugcV1GzviD5Rpx0eh6bd  eR6OJXIpChkbbMpZiHT918pR8Sh5Af4eEnxMcY3Y2oMoFdsUXx37mCEF1ATA4e3o0HrJxOfYBXJUZemKJXouHjuyAMKCS  V1geLkS2mGEvmT9fJvQC0vGzfNArBBaIIMDThqLtrW8Vxam6MxoQAycDfPHWDUNP7uEEYF5xlkS5gLDl86a1KwMLuI2zo  B8IW1v0NlO6tWbfA5BtIIYZaXTjJYdx201P6lqZuRDBDW3xcJ7faRLP0sgBEhqwYGEojPaucNvde5ydkGRYUsOdc6wPnJ  a6nqkm4Ti0y3FS72cr79DOmVjkTE2hSV9iaVNBrpiw7PSxS733n1xZFSubMEJgnE4qDVYWhhfu1CLJapQVpFOFfOmUF6M  mt2rMfFil9iCyJYPAShBMQrzECHQs0RoXH9tyEnqmRdGoKqDGB8LSgXplFiOuk8LiE3lXU3zQ0VyEax3NmgFg3jj8qTEJ  xs6Hc97B27eiY8UrFN63Uv6NQ9kfj58CJA1KH6WJ8Cr7xr4KExlhQxjuop4SNEN3T7SZSY3BwQ3ePVp494av6LgMQ3z97  hz1A1uPpyBtGI1i3KAiPU6hPPHcPLRCesE2wawpq8ocv8Lqo8CDV3M9vD27XLKQu89gw1CAezcpIWL7a7ILSsdSRlStoT  DWaAOvslhJ1GaEJqyRCkQ0JAh7UnAeGUM8t9LkWMG0DyZIvM6H9VOpHleIw86Z1mkJi7Kcx9DfiJaVvJ2Q1KtdOd78Kh6  Np6bV7zJICXfoKe5XlKmq12irCVHQYtseKSxUDkUhrR2IJ6moXuEZT8lzYPm0S9FPRnudSuvafHvlLU3ZBQWTPD7Fcmh2  aMVIIun6mp7n5bgJJtO7x8U0oK9PAMPUEMjwklLWHCMLLGfKGNOSstWahUJiPEOGIIB0LlFS6GP4BXapWJTLSwvYZA9Oq  KWwOTCyXUNGmuVqVTRBFLt4gGCQ5Uhosywy2U5uw9sLQzyuL4IpAwXL3sAY32jixzHrDekTQLWzmirmhW7Vg8hGT05xFC  ls2MZyQRcBSvXn5QbabWpUrueTncyt7dOX9DxGaV7z0fDshiOtPYtzqXAMy0e1QYJ5ol3F7oxyJm0iaoyArYdlOKpvNUF  Kct5YBQ4NkjAxYMN7Zn8iylUfC9mOfeLcEgiXCRdxpjFTpb04Isx7KQKkyyrC8pnXTI2wsVaZ3yb1VagXuYS2E0CDyiJ5  vdeNwA9SV1ATX7SUBURTDKFu6JC6iehXHjl9AezVOSWrDW2Bg4wrsc9McfDyqybin8EpjcbtIpz7f6qicpK4yt7eGRnrO  8RTgUO7nrkJi1BwfT7ZylgkigEwwXdQMSJ2lCTYdQ4qieB5Zm7xV4y0b7fEZlZminP4dDK1Y4YxofBdQNI8OnVBoG3mp3  5EF6N5s9O4SZq0EW2SwpcfhCKaPUO9VqfkJzfnSzvLGgFsQOJ8vHhWIRjIAKriJFK9t84Z6Xd27YEG5zPCACgCwMB4uas  V4BefAywRmN9tTfK2DEg9B9dMrag9k2DuYK2nDwiObQolGBMpvVJzNLOacdnhGZgBy8Tia22fEyuPF6KtO2wcLKSpoQca  452FiLQG1DXzOn7XzZUUPLHlkQiTtToDIIpjD3aWZDWVcPRRkJAj4zZJOv0neK8N0jOeQOkrt9uDTpANeM70PL8VSv7wz  6ksPyrGSpUQUz5M2OrNOluBMZwf9vV2h6H9dpm679GplifHaEYCTu7LiJaDIQwCXTV6WpzqFVnpuJ60g8ezdwuEeVPbot  J9nU6fmBJr1LCvCMWLuF8XlvmUvcWamNiNLbtg1rftZ474HsbR6XFSXO1Bdi397JQJWCokm0xLU01U77HX6WRN7KeeSBc  bdzY1lEza7pAFm1pOMvsxubFCU4e32rmmBvhU4tvTWKS7hlOAjziD2LO5HaAYn7pUIzGW3Fq9eHyvXKBjtid3X7XV2jpG  HAnZmUm5x5KXucteRAGHnssXYPCcrvacqMDIfv7qeEGgbMMu2As19jH65aMt6bGeXA3KkVN1Pb3FH0zaJH6unUszm57NH  i5T22ivsUGkaxevCmnraRZZTeGd7dn6x5KDz329cuZzFFDVJVCjw41TK2t9VnT5CuxXxx5B3Q4T5zjZL2uEYz7AjTjR5S  cd8mwoAZPYAyHhiFnhDbaC8wCMLekYc3MbsSE7zfLFpfZigIIM47hnxHGRPh2HTtdczEQ2cIpAoRuUMcsDzdXaYWsK7sp  7l7YUMnnRkSMnMJUzD5c1kp2eZ9vEPowwZuduH7CDZqiHu5yhJqm7mx3QndyKtMO4rHW8xtj3uuEf2blFpUP5xLdeUiru  f5UMy69i4zFWlR21ISZ1vn1tlbMJZn4gCGvr81zHYkG36Dki7zWHJE7ClI2AuBc1MmgUHnhJsXzlD2tB5Ie6W2E0TplXm  nT0KKbnhDVKUqC9YSHbzJr0pt8wqgvRxSBHFQOuxExVh2C0DL3z4xu9UHUmbSWAizyIkpNQMNGB1HDRjFS6wqR6CumJl3  4vGElq7U7DWF1oTkatq1aQRwNa1mjaGnBuyXToIDkO0Xbb8R7lAz0qozmRb5NiLsIAabaTOsxyN02UL6Bea0evl5Kkczb  VcXUgXBx1TScXbmxBxWP7d3NTgyEqvKdYJEtpr43Egp9AHMPnRLu037r4rHO44HHSN7bLeK7K43uWj92gRNgi0NXD4gId  Gul3qyu9EYal0Ve46KLeIvxm0zrxXYJTeN3zQ7go4S9OB3PL9kOhm7gUS8XNbXvrctgluhaprZwTFAXgJ6CTS93QiEEtz  OQeMwBhTAnzqOhZsGhilqlhCIKgJoZGMS4cCVAtp7nR672oZDV4zIsRJ0afbofFd8vL0zXST1iDB5u7QuF90zZLZqvmyZ  OZCRW1gbiah8CJWJU4CUBtiJ2iYVoq9LY77g4OBY1WXCaCheC6afCJ1gdBbq71A7tsx3lB2j6ESVZewqRaYzqGAnvDtNB  8b5sJLAMPrAT9Zi8cZufGDokWWep34vVAEXSrHiLzNcAIp2NzJ5yDFqj8YfT7hd027r48rcmSXgw0bSch6URmPfbnI6BG  vUOO3PbHT0S1IC41bN3olGCwo3ejwxrQPukLhSDKzMnUtqsCKrRdqCRnVbd3TDE6VVIudrcrKghc13mPPhD2WbtwQVQVS  OEuQBdrxY2tLEkNmmGG9YplGRG1JDiDKva0AMLPwIMuwwQs3mxQNNk2n9VsfH5C4PtPJKayn5UXvoHIsc7m8tLivVMWyr  QJqJEHy8itcnahSztPvwwddPUhG0EWLKyiqOI2j8Mncq7HQKdY9mCT6E9F17T0mHMzk9IiglOyNHmbXrkDyxnxbMQsLYy  d3zPQF7kiTqB3f8QHdIPIX9xOVXBy7OBTe8nirdXM4u2xBL5DWKEC7UerZCi45ZeDAK13LBLkDIQaQIpgUFgVOGk75xue  rjk5cC03o6juUqTpftyqiYTmp7IWm7PFVNVJp5iTwJ2fbkWDL5uoTQiCqRG2PaHj6xWI3qcyDBcPLnWl5mgxmOBHKjSo4  T7PKbwCLDoHzf77mCUWHG0hDdBvUAB2rcLi4HGJ7VsHH1WTIUnx41z1A3OhfYQhNOmlmGIg63VsOqoaf2nzrx0jZIcFXq  1yzgaYCv5e0tE8EQXdhQsMChRkG3RUoeSwiEYAMXivwDmNluY1OIpFgXICLP7UW2Z5mafC4L3teeV9PTev8xVqC8qNdcD  e4aFLJ1yLLbbsw1GKd6rLiZfkgmGnLfQALwrVLxburOIQZgNfFrJPkwp8dBu0dI1HQDKlHRyjjVvyMdLyQ3pRK25sin45  Z4Zhtsu5hV7wkOd5fzutfycjdsPcFEElgeE2LKBjRhDqHcReqijNpRS4HMos0exXulCOnwTz8VWc3MtsAGgJRy9lzXNUE  nQRkcf53gYdKPxlAjJGFAxs0ye9ZP4RGxOQ5h1w5l9T5aJBv0TUlPQLqPMtUodDPw76fsx3uaD3rEKtyuDtRKIcEp3Xge  EGGdxCrPPBIIdFT5BjVuawtCXwDonvi2AitBr7zURQ6a4Lvscwdb70KDYkLwGCpKETXef4KZrtoQlQswBHrNDWfhiPhOj  hH1WToeEqMoCGP6pQbF2rgia22wRgPokWmL6MALfYKp9xpfsEULNPEltsVgGyVEDMDBEuX3uCtprhJngOgBjD7BgL2yRL  hfLpdEW8yXWJX1mmCc3AO9V80XApCpLc2u3sVv68feUDz2HtgJpJJaxiZoyDeEP9nOAV6npoLiOqE4LEgI8HtD6s4tCkd  J8rHlBX5m80QZL5dMLhuRv2RJkQ9ywUgAdl0qXUm7hhuNiPH2ksSPTjESAN506sHdJlwwxc1XwvwkU8yh3ftrIx70d2Sg  fTuJ4BmlbcuLM6xY7xNoHUyoMdy2dR9X9vGJzrMHiidiQpUS0ExytTFy7O5ltIXv9FuljNri4XU7xeKaUu8ZMRkJt5QoR  mJPSZzx0tENLxXfMHmMmlGUHLdUrHEXJdWjRoAqKFQDDUGf8ukb7uF7GBlinDU4qaS1V2cY2x3QiA7ZLfBRtfMV8H8D8i  U5LMg4R5tg3XfEq6yJlIAl6VgApI9165ZYkmZrr3RBnbZCdIrB5TXx67S1VqprfSuXkbGQHiijYRcCGUgkeLtlxkiqYL7  KfpEnpr4I4temJnDS6MGxMB5iBnEEjTBjqUIeqodI9peNyvkT9ExD6GdLDykjis0mZqTEfXCNEqXzzbJHICLlOju5KF5o  KgXtIvsjtz164zZMmfndjVIvl9EeRZtsKehEDziQhELSGeTc5ifAS2buAz15EY9emedLBRNeMNJMw2RiRn203d5NvkbeX  0OTgtUwo7cRLlHtIiVsovsRXcKZxNhAqaBYGNr0YxePEKGyhQjpQ8MRaZilGEJ7JoeytSIcPAXsug0FutaoQAM3zY00Q0  HmUuBBkfwmijqNRIPqMNK7ej0vxKSp10uqte4YuLCKOkU9DhyDMqRbBwTYosxkz7C1I8Ci9LUahSiHO7SRVoH1dOR4agV  rZfTLrzut4vUed5A56plR14EKWrnhPaXZv2tbSreWWjTHYfxDX0ep7BqeSqPYTaqQ6gpeqeRggJ7KT18RGKTgQ0KPyey2  pu5hZnlmL8z1gAQ3wQ6GGHspnKAqEnO85YvxDTqJgWhRUe9ZZSt8AduEzIyavm5b3Xpbwu4sTnZpPvb\00", align 1
@.str.2 = private unnamed_addr constant [32 x i8] c"Calculated MD5 hash in %lf (s)\0A\00", align 1

; Function Attrs: noinline nounwind optnone ssp uwtable
define void @_Z9MD5MemCpyPhS_j(i8*, i8*, i32) #0 {
  %4 = alloca i8*, align 8
  %5 = alloca i8*, align 8
  %6 = alloca i32, align 4
  %7 = alloca i32, align 4
  store i8* %0, i8** %4, align 8
  store i8* %1, i8** %5, align 8
  store i32 %2, i32* %6, align 4
  store i32 0, i32* %7, align 4
  br label %8

; <label>:8:                                      ; preds = %22, %3
  %9 = load i32, i32* %7, align 4
  %10 = load i32, i32* %6, align 4
  %11 = icmp ult i32 %9, %10
  br i1 %11, label %12, label %25

; <label>:12:                                     ; preds = %8
  %13 = load i8*, i8** %5, align 8
  %14 = load i32, i32* %7, align 4
  %15 = sext i32 %14 to i64
  %16 = getelementptr inbounds i8, i8* %13, i64 %15
  %17 = load i8, i8* %16, align 1
  %18 = load i8*, i8** %4, align 8
  %19 = load i32, i32* %7, align 4
  %20 = sext i32 %19 to i64
  %21 = getelementptr inbounds i8, i8* %18, i64 %20
  store i8 %17, i8* %21, align 1
  br label %22

; <label>:22:                                     ; preds = %12
  %23 = load i32, i32* %7, align 4
  %24 = add nsw i32 %23, 1
  store i32 %24, i32* %7, align 4
  br label %8

; <label>:25:                                     ; preds = %8
  ret void
}

; Function Attrs: noinline nounwind optnone ssp uwtable
define void @_Z9MD5MemSetPhij(i8*, i32, i32) #0 {
  %4 = alloca i8*, align 8
  %5 = alloca i32, align 4
  %6 = alloca i32, align 4
  %7 = alloca i32, align 4
  store i8* %0, i8** %4, align 8
  store i32 %1, i32* %5, align 4
  store i32 %2, i32* %6, align 4
  store i32 0, i32* %7, align 4
  br label %8

; <label>:8:                                      ; preds = %19, %3
  %9 = load i32, i32* %7, align 4
  %10 = load i32, i32* %6, align 4
  %11 = icmp ult i32 %9, %10
  br i1 %11, label %12, label %22

; <label>:12:                                     ; preds = %8
  %13 = load i32, i32* %5, align 4
  %14 = trunc i32 %13 to i8
  %15 = load i8*, i8** %4, align 8
  %16 = load i32, i32* %7, align 4
  %17 = sext i32 %16 to i64
  %18 = getelementptr inbounds i8, i8* %15, i64 %17
  store i8 %14, i8* %18, align 1
  br label %19

; <label>:19:                                     ; preds = %12
  %20 = load i32, i32* %7, align 4
  %21 = add nsw i32 %20, 1
  store i32 %21, i32* %7, align 4
  br label %8

; <label>:22:                                     ; preds = %8
  ret void
}

; Function Attrs: noinline nounwind optnone ssp uwtable
define i32 @_Z11FFTransformjjjjjjj(i32, i32, i32, i32, i32, i32, i32) #0 {
  %8 = alloca i32, align 4
  %9 = alloca i32, align 4
  %10 = alloca i32, align 4
  %11 = alloca i32, align 4
  %12 = alloca i32, align 4
  %13 = alloca i32, align 4
  %14 = alloca i32, align 4
  %15 = alloca i32, align 4
  store i32 %0, i32* %8, align 4
  store i32 %1, i32* %9, align 4
  store i32 %2, i32* %10, align 4
  store i32 %3, i32* %11, align 4
  store i32 %4, i32* %12, align 4
  store i32 %5, i32* %13, align 4
  store i32 %6, i32* %14, align 4
  %16 = load i32, i32* %8, align 4
  %17 = load i32, i32* %9, align 4
  %18 = load i32, i32* %10, align 4
  %19 = and i32 %17, %18
  %20 = load i32, i32* %9, align 4
  %21 = xor i32 %20, -1
  %22 = load i32, i32* %11, align 4
  %23 = and i32 %21, %22
  %24 = or i32 %19, %23
  %25 = add i32 %16, %24
  %26 = load i32, i32* %12, align 4
  %27 = add i32 %25, %26
  %28 = load i32, i32* %14, align 4
  %29 = add i32 %27, %28
  store i32 %29, i32* %15, align 4
  %30 = load i32, i32* %15, align 4
  %31 = load i32, i32* %13, align 4
  %32 = shl i32 %30, %31
  %33 = load i32, i32* %15, align 4
  %34 = load i32, i32* %13, align 4
  %35 = sub i32 32, %34
  %36 = lshr i32 %33, %35
  %37 = or i32 %32, %36
  store i32 %37, i32* %15, align 4
  %38 = load i32, i32* %15, align 4
  %39 = load i32, i32* %9, align 4
  %40 = add i32 %38, %39
  %41 = load i32, i32* %15, align 4
  %42 = add i32 %41, %40
  store i32 %42, i32* %15, align 4
  %43 = load i32, i32* %15, align 4
  ret i32 %43
}

; Function Attrs: noinline nounwind optnone ssp uwtable
define i32 @_Z11GGTransformjjjjjjj(i32, i32, i32, i32, i32, i32, i32) #0 {
  %8 = alloca i32, align 4
  %9 = alloca i32, align 4
  %10 = alloca i32, align 4
  %11 = alloca i32, align 4
  %12 = alloca i32, align 4
  %13 = alloca i32, align 4
  %14 = alloca i32, align 4
  %15 = alloca i32, align 4
  store i32 %0, i32* %8, align 4
  store i32 %1, i32* %9, align 4
  store i32 %2, i32* %10, align 4
  store i32 %3, i32* %11, align 4
  store i32 %4, i32* %12, align 4
  store i32 %5, i32* %13, align 4
  store i32 %6, i32* %14, align 4
  %16 = load i32, i32* %8, align 4
  %17 = load i32, i32* %9, align 4
  %18 = load i32, i32* %11, align 4
  %19 = and i32 %17, %18
  %20 = load i32, i32* %10, align 4
  %21 = load i32, i32* %11, align 4
  %22 = xor i32 %21, -1
  %23 = and i32 %20, %22
  %24 = or i32 %19, %23
  %25 = add i32 %16, %24
  %26 = load i32, i32* %12, align 4
  %27 = add i32 %25, %26
  %28 = load i32, i32* %14, align 4
  %29 = add i32 %27, %28
  store i32 %29, i32* %15, align 4
  %30 = load i32, i32* %15, align 4
  %31 = load i32, i32* %13, align 4
  %32 = shl i32 %30, %31
  %33 = load i32, i32* %15, align 4
  %34 = load i32, i32* %13, align 4
  %35 = sub i32 32, %34
  %36 = lshr i32 %33, %35
  %37 = or i32 %32, %36
  store i32 %37, i32* %15, align 4
  %38 = load i32, i32* %15, align 4
  %39 = load i32, i32* %9, align 4
  %40 = add i32 %38, %39
  %41 = load i32, i32* %15, align 4
  %42 = add i32 %41, %40
  store i32 %42, i32* %15, align 4
  %43 = load i32, i32* %15, align 4
  ret i32 %43
}

; Function Attrs: noinline nounwind optnone ssp uwtable
define i32 @_Z11HHTransformjjjjjjj(i32, i32, i32, i32, i32, i32, i32) #0 {
  %8 = alloca i32, align 4
  %9 = alloca i32, align 4
  %10 = alloca i32, align 4
  %11 = alloca i32, align 4
  %12 = alloca i32, align 4
  %13 = alloca i32, align 4
  %14 = alloca i32, align 4
  %15 = alloca i32, align 4
  store i32 %0, i32* %8, align 4
  store i32 %1, i32* %9, align 4
  store i32 %2, i32* %10, align 4
  store i32 %3, i32* %11, align 4
  store i32 %4, i32* %12, align 4
  store i32 %5, i32* %13, align 4
  store i32 %6, i32* %14, align 4
  %16 = load i32, i32* %8, align 4
  %17 = load i32, i32* %9, align 4
  %18 = load i32, i32* %10, align 4
  %19 = xor i32 %17, %18
  %20 = load i32, i32* %11, align 4
  %21 = xor i32 %19, %20
  %22 = add i32 %16, %21
  %23 = load i32, i32* %12, align 4
  %24 = add i32 %22, %23
  %25 = load i32, i32* %14, align 4
  %26 = add i32 %24, %25
  store i32 %26, i32* %15, align 4
  %27 = load i32, i32* %15, align 4
  %28 = load i32, i32* %13, align 4
  %29 = shl i32 %27, %28
  %30 = load i32, i32* %15, align 4
  %31 = load i32, i32* %13, align 4
  %32 = sub i32 32, %31
  %33 = lshr i32 %30, %32
  %34 = or i32 %29, %33
  store i32 %34, i32* %15, align 4
  %35 = load i32, i32* %15, align 4
  %36 = load i32, i32* %9, align 4
  %37 = add i32 %35, %36
  %38 = load i32, i32* %15, align 4
  %39 = add i32 %38, %37
  store i32 %39, i32* %15, align 4
  %40 = load i32, i32* %15, align 4
  ret i32 %40
}

; Function Attrs: noinline nounwind optnone ssp uwtable
define i32 @_Z11IITransformjjjjjjj(i32, i32, i32, i32, i32, i32, i32) #0 {
  %8 = alloca i32, align 4
  %9 = alloca i32, align 4
  %10 = alloca i32, align 4
  %11 = alloca i32, align 4
  %12 = alloca i32, align 4
  %13 = alloca i32, align 4
  %14 = alloca i32, align 4
  %15 = alloca i32, align 4
  store i32 %0, i32* %8, align 4
  store i32 %1, i32* %9, align 4
  store i32 %2, i32* %10, align 4
  store i32 %3, i32* %11, align 4
  store i32 %4, i32* %12, align 4
  store i32 %5, i32* %13, align 4
  store i32 %6, i32* %14, align 4
  %16 = load i32, i32* %8, align 4
  %17 = load i32, i32* %10, align 4
  %18 = load i32, i32* %9, align 4
  %19 = load i32, i32* %11, align 4
  %20 = xor i32 %19, -1
  %21 = or i32 %18, %20
  %22 = xor i32 %17, %21
  %23 = add i32 %16, %22
  %24 = load i32, i32* %12, align 4
  %25 = add i32 %23, %24
  %26 = load i32, i32* %14, align 4
  %27 = add i32 %25, %26
  store i32 %27, i32* %15, align 4
  %28 = load i32, i32* %15, align 4
  %29 = load i32, i32* %13, align 4
  %30 = shl i32 %28, %29
  %31 = load i32, i32* %15, align 4
  %32 = load i32, i32* %13, align 4
  %33 = sub i32 32, %32
  %34 = lshr i32 %31, %33
  %35 = or i32 %30, %34
  store i32 %35, i32* %15, align 4
  %36 = load i32, i32* %15, align 4
  %37 = load i32, i32* %9, align 4
  %38 = add i32 %36, %37
  %39 = load i32, i32* %15, align 4
  %40 = add i32 %39, %38
  store i32 %40, i32* %15, align 4
  %41 = load i32, i32* %15, align 4
  ret i32 %41
}

; Function Attrs: noinline nounwind optnone ssp uwtable
define void @_Z7MD5InitPjS_(i32*, i32*) #0 {
  %3 = alloca i32*, align 8
  %4 = alloca i32*, align 8
  store i32* %0, i32** %3, align 8
  store i32* %1, i32** %4, align 8
  %5 = load i32*, i32** %3, align 8
  %6 = getelementptr inbounds i32, i32* %5, i64 0
  store i32 1732584193, i32* %6, align 4
  %7 = load i32*, i32** %3, align 8
  %8 = getelementptr inbounds i32, i32* %7, i64 1
  store i32 -271733879, i32* %8, align 4
  %9 = load i32*, i32** %3, align 8
  %10 = getelementptr inbounds i32, i32* %9, i64 2
  store i32 -1732584194, i32* %10, align 4
  %11 = load i32*, i32** %3, align 8
  %12 = getelementptr inbounds i32, i32* %11, i64 3
  store i32 271733878, i32* %12, align 4
  %13 = load i32*, i32** %4, align 8
  %14 = getelementptr inbounds i32, i32* %13, i64 0
  store i32 0, i32* %14, align 4
  %15 = load i32*, i32** %4, align 8
  %16 = getelementptr inbounds i32, i32* %15, i64 1
  store i32 0, i32* %16, align 4
  ret void
}

; Function Attrs: noinline nounwind optnone ssp uwtable
define void @_Z6EncodePhPjj(i8*, i32*, i32) #0 {
  %4 = alloca i8*, align 8
  %5 = alloca i32*, align 8
  %6 = alloca i32, align 4
  %7 = alloca i32, align 4
  %8 = alloca i32, align 4
  store i8* %0, i8** %4, align 8
  store i32* %1, i32** %5, align 8
  store i32 %2, i32* %6, align 4
  store i32 0, i32* %7, align 4
  store i32 0, i32* %8, align 4
  br label %9

; <label>:9:                                      ; preds = %64, %3
  %10 = load i32, i32* %8, align 4
  %11 = load i32, i32* %6, align 4
  %12 = icmp ult i32 %10, %11
  br i1 %12, label %13, label %69

; <label>:13:                                     ; preds = %9
  %14 = load i32*, i32** %5, align 8
  %15 = load i32, i32* %7, align 4
  %16 = sext i32 %15 to i64
  %17 = getelementptr inbounds i32, i32* %14, i64 %16
  %18 = load i32, i32* %17, align 4
  %19 = and i32 %18, 255
  %20 = trunc i32 %19 to i8
  %21 = load i8*, i8** %4, align 8
  %22 = load i32, i32* %8, align 4
  %23 = sext i32 %22 to i64
  %24 = getelementptr inbounds i8, i8* %21, i64 %23
  store i8 %20, i8* %24, align 1
  %25 = load i32*, i32** %5, align 8
  %26 = load i32, i32* %7, align 4
  %27 = sext i32 %26 to i64
  %28 = getelementptr inbounds i32, i32* %25, i64 %27
  %29 = load i32, i32* %28, align 4
  %30 = lshr i32 %29, 8
  %31 = and i32 %30, 255
  %32 = trunc i32 %31 to i8
  %33 = load i8*, i8** %4, align 8
  %34 = load i32, i32* %8, align 4
  %35 = add nsw i32 %34, 1
  %36 = sext i32 %35 to i64
  %37 = getelementptr inbounds i8, i8* %33, i64 %36
  store i8 %32, i8* %37, align 1
  %38 = load i32*, i32** %5, align 8
  %39 = load i32, i32* %7, align 4
  %40 = sext i32 %39 to i64
  %41 = getelementptr inbounds i32, i32* %38, i64 %40
  %42 = load i32, i32* %41, align 4
  %43 = lshr i32 %42, 16
  %44 = and i32 %43, 255
  %45 = trunc i32 %44 to i8
  %46 = load i8*, i8** %4, align 8
  %47 = load i32, i32* %8, align 4
  %48 = add nsw i32 %47, 2
  %49 = sext i32 %48 to i64
  %50 = getelementptr inbounds i8, i8* %46, i64 %49
  store i8 %45, i8* %50, align 1
  %51 = load i32*, i32** %5, align 8
  %52 = load i32, i32* %7, align 4
  %53 = sext i32 %52 to i64
  %54 = getelementptr inbounds i32, i32* %51, i64 %53
  %55 = load i32, i32* %54, align 4
  %56 = lshr i32 %55, 24
  %57 = and i32 %56, 255
  %58 = trunc i32 %57 to i8
  %59 = load i8*, i8** %4, align 8
  %60 = load i32, i32* %8, align 4
  %61 = add nsw i32 %60, 3
  %62 = sext i32 %61 to i64
  %63 = getelementptr inbounds i8, i8* %59, i64 %62
  store i8 %58, i8* %63, align 1
  br label %64

; <label>:64:                                     ; preds = %13
  %65 = load i32, i32* %7, align 4
  %66 = add nsw i32 %65, 1
  store i32 %66, i32* %7, align 4
  %67 = load i32, i32* %8, align 4
  %68 = add nsw i32 %67, 4
  store i32 %68, i32* %8, align 4
  br label %9

; <label>:69:                                     ; preds = %9
  ret void
}

; Function Attrs: noinline nounwind optnone ssp uwtable
define void @_Z6DecodePjPhj(i32*, i8*, i32) #0 {
  %4 = alloca i32*, align 8
  %5 = alloca i8*, align 8
  %6 = alloca i32, align 4
  %7 = alloca i32, align 4
  %8 = alloca i32, align 4
  %9 = alloca i32, align 4
  %10 = alloca i32, align 4
  %11 = alloca i32, align 4
  store i32* %0, i32** %4, align 8
  store i8* %1, i8** %5, align 8
  store i32 %2, i32* %6, align 4
  store i32 8, i32* %9, align 4
  store i32 16, i32* %10, align 4
  store i32 24, i32* %11, align 4
  store i32 0, i32* %7, align 4
  store i32 0, i32* %8, align 4
  br label %12

; <label>:12:                                     ; preds = %54, %3
  %13 = load i32, i32* %8, align 4
  %14 = load i32, i32* %6, align 4
  %15 = icmp ult i32 %13, %14
  br i1 %15, label %16, label %59

; <label>:16:                                     ; preds = %12
  %17 = load i8*, i8** %5, align 8
  %18 = load i32, i32* %8, align 4
  %19 = zext i32 %18 to i64
  %20 = getelementptr inbounds i8, i8* %17, i64 %19
  %21 = load i8, i8* %20, align 1
  %22 = zext i8 %21 to i32
  %23 = load i8*, i8** %5, align 8
  %24 = load i32, i32* %8, align 4
  %25 = add i32 %24, 1
  %26 = zext i32 %25 to i64
  %27 = getelementptr inbounds i8, i8* %23, i64 %26
  %28 = load i8, i8* %27, align 1
  %29 = zext i8 %28 to i32
  %30 = shl i32 %29, 8
  %31 = or i32 %22, %30
  %32 = load i8*, i8** %5, align 8
  %33 = load i32, i32* %8, align 4
  %34 = add i32 %33, 2
  %35 = zext i32 %34 to i64
  %36 = getelementptr inbounds i8, i8* %32, i64 %35
  %37 = load i8, i8* %36, align 1
  %38 = zext i8 %37 to i32
  %39 = shl i32 %38, 16
  %40 = or i32 %31, %39
  %41 = load i8*, i8** %5, align 8
  %42 = load i32, i32* %8, align 4
  %43 = add i32 %42, 3
  %44 = zext i32 %43 to i64
  %45 = getelementptr inbounds i8, i8* %41, i64 %44
  %46 = load i8, i8* %45, align 1
  %47 = zext i8 %46 to i32
  %48 = shl i32 %47, 24
  %49 = or i32 %40, %48
  %50 = load i32*, i32** %4, align 8
  %51 = load i32, i32* %7, align 4
  %52 = zext i32 %51 to i64
  %53 = getelementptr inbounds i32, i32* %50, i64 %52
  store i32 %49, i32* %53, align 4
  br label %54

; <label>:54:                                     ; preds = %16
  %55 = load i32, i32* %7, align 4
  %56 = add i32 %55, 1
  store i32 %56, i32* %7, align 4
  %57 = load i32, i32* %8, align 4
  %58 = add i32 %57, 4
  store i32 %58, i32* %8, align 4
  br label %12

; <label>:59:                                     ; preds = %12
  ret void
}

; Function Attrs: noinline nounwind optnone ssp uwtable
define void @_Z12MD5TransformPjPh(i32*, i8*) #0 {
  %3 = alloca i32*, align 8
  %4 = alloca i8*, align 8
  %5 = alloca i32, align 4
  %6 = alloca i32, align 4
  %7 = alloca i32, align 4
  %8 = alloca i32, align 4
  %9 = alloca [16 x i32], align 16
  store i32* %0, i32** %3, align 8
  store i8* %1, i8** %4, align 8
  %10 = load i32*, i32** %3, align 8
  %11 = getelementptr inbounds i32, i32* %10, i64 0
  %12 = load i32, i32* %11, align 4
  store i32 %12, i32* %5, align 4
  %13 = load i32*, i32** %3, align 8
  %14 = getelementptr inbounds i32, i32* %13, i64 1
  %15 = load i32, i32* %14, align 4
  store i32 %15, i32* %6, align 4
  %16 = load i32*, i32** %3, align 8
  %17 = getelementptr inbounds i32, i32* %16, i64 2
  %18 = load i32, i32* %17, align 4
  store i32 %18, i32* %7, align 4
  %19 = load i32*, i32** %3, align 8
  %20 = getelementptr inbounds i32, i32* %19, i64 3
  %21 = load i32, i32* %20, align 4
  store i32 %21, i32* %8, align 4
  %22 = getelementptr inbounds [16 x i32], [16 x i32]* %9, i32 0, i32 0
  %23 = load i8*, i8** %4, align 8
  call void @_Z6DecodePjPhj(i32* %22, i8* %23, i32 64)
  %24 = load i32, i32* %5, align 4
  %25 = load i32, i32* %6, align 4
  %26 = load i32, i32* %7, align 4
  %27 = load i32, i32* %8, align 4
  %28 = getelementptr inbounds [16 x i32], [16 x i32]* %9, i64 0, i64 0
  %29 = load i32, i32* %28, align 16
  %30 = call i32 @_Z11FFTransformjjjjjjj(i32 %24, i32 %25, i32 %26, i32 %27, i32 %29, i32 7, i32 -680876936)
  store i32 %30, i32* %5, align 4
  %31 = load i32, i32* %8, align 4
  %32 = load i32, i32* %5, align 4
  %33 = load i32, i32* %6, align 4
  %34 = load i32, i32* %7, align 4
  %35 = getelementptr inbounds [16 x i32], [16 x i32]* %9, i64 0, i64 1
  %36 = load i32, i32* %35, align 4
  %37 = call i32 @_Z11FFTransformjjjjjjj(i32 %31, i32 %32, i32 %33, i32 %34, i32 %36, i32 12, i32 -389564586)
  store i32 %37, i32* %8, align 4
  %38 = load i32, i32* %7, align 4
  %39 = load i32, i32* %8, align 4
  %40 = load i32, i32* %5, align 4
  %41 = load i32, i32* %6, align 4
  %42 = getelementptr inbounds [16 x i32], [16 x i32]* %9, i64 0, i64 2
  %43 = load i32, i32* %42, align 8
  %44 = call i32 @_Z11FFTransformjjjjjjj(i32 %38, i32 %39, i32 %40, i32 %41, i32 %43, i32 17, i32 606105819)
  store i32 %44, i32* %7, align 4
  %45 = load i32, i32* %6, align 4
  %46 = load i32, i32* %7, align 4
  %47 = load i32, i32* %8, align 4
  %48 = load i32, i32* %5, align 4
  %49 = getelementptr inbounds [16 x i32], [16 x i32]* %9, i64 0, i64 3
  %50 = load i32, i32* %49, align 4
  %51 = call i32 @_Z11FFTransformjjjjjjj(i32 %45, i32 %46, i32 %47, i32 %48, i32 %50, i32 22, i32 -1044525330)
  store i32 %51, i32* %6, align 4
  %52 = load i32, i32* %5, align 4
  %53 = load i32, i32* %6, align 4
  %54 = load i32, i32* %7, align 4
  %55 = load i32, i32* %8, align 4
  %56 = getelementptr inbounds [16 x i32], [16 x i32]* %9, i64 0, i64 4
  %57 = load i32, i32* %56, align 16
  %58 = call i32 @_Z11FFTransformjjjjjjj(i32 %52, i32 %53, i32 %54, i32 %55, i32 %57, i32 7, i32 -176418897)
  store i32 %58, i32* %5, align 4
  %59 = load i32, i32* %8, align 4
  %60 = load i32, i32* %5, align 4
  %61 = load i32, i32* %6, align 4
  %62 = load i32, i32* %7, align 4
  %63 = getelementptr inbounds [16 x i32], [16 x i32]* %9, i64 0, i64 5
  %64 = load i32, i32* %63, align 4
  %65 = call i32 @_Z11FFTransformjjjjjjj(i32 %59, i32 %60, i32 %61, i32 %62, i32 %64, i32 12, i32 1200080426)
  store i32 %65, i32* %8, align 4
  %66 = load i32, i32* %7, align 4
  %67 = load i32, i32* %8, align 4
  %68 = load i32, i32* %5, align 4
  %69 = load i32, i32* %6, align 4
  %70 = getelementptr inbounds [16 x i32], [16 x i32]* %9, i64 0, i64 6
  %71 = load i32, i32* %70, align 8
  %72 = call i32 @_Z11FFTransformjjjjjjj(i32 %66, i32 %67, i32 %68, i32 %69, i32 %71, i32 17, i32 -1473231341)
  store i32 %72, i32* %7, align 4
  %73 = load i32, i32* %6, align 4
  %74 = load i32, i32* %7, align 4
  %75 = load i32, i32* %8, align 4
  %76 = load i32, i32* %5, align 4
  %77 = getelementptr inbounds [16 x i32], [16 x i32]* %9, i64 0, i64 7
  %78 = load i32, i32* %77, align 4
  %79 = call i32 @_Z11FFTransformjjjjjjj(i32 %73, i32 %74, i32 %75, i32 %76, i32 %78, i32 22, i32 -45705983)
  store i32 %79, i32* %6, align 4
  %80 = load i32, i32* %5, align 4
  %81 = load i32, i32* %6, align 4
  %82 = load i32, i32* %7, align 4
  %83 = load i32, i32* %8, align 4
  %84 = getelementptr inbounds [16 x i32], [16 x i32]* %9, i64 0, i64 8
  %85 = load i32, i32* %84, align 16
  %86 = call i32 @_Z11FFTransformjjjjjjj(i32 %80, i32 %81, i32 %82, i32 %83, i32 %85, i32 7, i32 1770035416)
  store i32 %86, i32* %5, align 4
  %87 = load i32, i32* %8, align 4
  %88 = load i32, i32* %5, align 4
  %89 = load i32, i32* %6, align 4
  %90 = load i32, i32* %7, align 4
  %91 = getelementptr inbounds [16 x i32], [16 x i32]* %9, i64 0, i64 9
  %92 = load i32, i32* %91, align 4
  %93 = call i32 @_Z11FFTransformjjjjjjj(i32 %87, i32 %88, i32 %89, i32 %90, i32 %92, i32 12, i32 -1958414417)
  store i32 %93, i32* %8, align 4
  %94 = load i32, i32* %7, align 4
  %95 = load i32, i32* %8, align 4
  %96 = load i32, i32* %5, align 4
  %97 = load i32, i32* %6, align 4
  %98 = getelementptr inbounds [16 x i32], [16 x i32]* %9, i64 0, i64 10
  %99 = load i32, i32* %98, align 8
  %100 = call i32 @_Z11FFTransformjjjjjjj(i32 %94, i32 %95, i32 %96, i32 %97, i32 %99, i32 17, i32 -42063)
  store i32 %100, i32* %7, align 4
  %101 = load i32, i32* %6, align 4
  %102 = load i32, i32* %7, align 4
  %103 = load i32, i32* %8, align 4
  %104 = load i32, i32* %5, align 4
  %105 = getelementptr inbounds [16 x i32], [16 x i32]* %9, i64 0, i64 11
  %106 = load i32, i32* %105, align 4
  %107 = call i32 @_Z11FFTransformjjjjjjj(i32 %101, i32 %102, i32 %103, i32 %104, i32 %106, i32 22, i32 -1990404162)
  store i32 %107, i32* %6, align 4
  %108 = load i32, i32* %5, align 4
  %109 = load i32, i32* %6, align 4
  %110 = load i32, i32* %7, align 4
  %111 = load i32, i32* %8, align 4
  %112 = getelementptr inbounds [16 x i32], [16 x i32]* %9, i64 0, i64 12
  %113 = load i32, i32* %112, align 16
  %114 = call i32 @_Z11FFTransformjjjjjjj(i32 %108, i32 %109, i32 %110, i32 %111, i32 %113, i32 7, i32 1804603682)
  store i32 %114, i32* %5, align 4
  %115 = load i32, i32* %8, align 4
  %116 = load i32, i32* %5, align 4
  %117 = load i32, i32* %6, align 4
  %118 = load i32, i32* %7, align 4
  %119 = getelementptr inbounds [16 x i32], [16 x i32]* %9, i64 0, i64 13
  %120 = load i32, i32* %119, align 4
  %121 = call i32 @_Z11FFTransformjjjjjjj(i32 %115, i32 %116, i32 %117, i32 %118, i32 %120, i32 12, i32 -40341101)
  store i32 %121, i32* %8, align 4
  %122 = load i32, i32* %7, align 4
  %123 = load i32, i32* %8, align 4
  %124 = load i32, i32* %5, align 4
  %125 = load i32, i32* %6, align 4
  %126 = getelementptr inbounds [16 x i32], [16 x i32]* %9, i64 0, i64 14
  %127 = load i32, i32* %126, align 8
  %128 = call i32 @_Z11FFTransformjjjjjjj(i32 %122, i32 %123, i32 %124, i32 %125, i32 %127, i32 17, i32 -1502002290)
  store i32 %128, i32* %7, align 4
  %129 = load i32, i32* %6, align 4
  %130 = load i32, i32* %7, align 4
  %131 = load i32, i32* %8, align 4
  %132 = load i32, i32* %5, align 4
  %133 = getelementptr inbounds [16 x i32], [16 x i32]* %9, i64 0, i64 15
  %134 = load i32, i32* %133, align 4
  %135 = call i32 @_Z11FFTransformjjjjjjj(i32 %129, i32 %130, i32 %131, i32 %132, i32 %134, i32 22, i32 1236535329)
  store i32 %135, i32* %6, align 4
  %136 = load i32, i32* %5, align 4
  %137 = load i32, i32* %6, align 4
  %138 = load i32, i32* %7, align 4
  %139 = load i32, i32* %8, align 4
  %140 = getelementptr inbounds [16 x i32], [16 x i32]* %9, i64 0, i64 1
  %141 = load i32, i32* %140, align 4
  %142 = call i32 @_Z11GGTransformjjjjjjj(i32 %136, i32 %137, i32 %138, i32 %139, i32 %141, i32 5, i32 -165796510)
  store i32 %142, i32* %5, align 4
  %143 = load i32, i32* %8, align 4
  %144 = load i32, i32* %5, align 4
  %145 = load i32, i32* %6, align 4
  %146 = load i32, i32* %7, align 4
  %147 = getelementptr inbounds [16 x i32], [16 x i32]* %9, i64 0, i64 6
  %148 = load i32, i32* %147, align 8
  %149 = call i32 @_Z11GGTransformjjjjjjj(i32 %143, i32 %144, i32 %145, i32 %146, i32 %148, i32 9, i32 -1069501632)
  store i32 %149, i32* %8, align 4
  %150 = load i32, i32* %7, align 4
  %151 = load i32, i32* %8, align 4
  %152 = load i32, i32* %5, align 4
  %153 = load i32, i32* %6, align 4
  %154 = getelementptr inbounds [16 x i32], [16 x i32]* %9, i64 0, i64 11
  %155 = load i32, i32* %154, align 4
  %156 = call i32 @_Z11GGTransformjjjjjjj(i32 %150, i32 %151, i32 %152, i32 %153, i32 %155, i32 14, i32 643717713)
  store i32 %156, i32* %7, align 4
  %157 = load i32, i32* %6, align 4
  %158 = load i32, i32* %7, align 4
  %159 = load i32, i32* %8, align 4
  %160 = load i32, i32* %5, align 4
  %161 = getelementptr inbounds [16 x i32], [16 x i32]* %9, i64 0, i64 0
  %162 = load i32, i32* %161, align 16
  %163 = call i32 @_Z11GGTransformjjjjjjj(i32 %157, i32 %158, i32 %159, i32 %160, i32 %162, i32 20, i32 -373897302)
  store i32 %163, i32* %6, align 4
  %164 = load i32, i32* %5, align 4
  %165 = load i32, i32* %6, align 4
  %166 = load i32, i32* %7, align 4
  %167 = load i32, i32* %8, align 4
  %168 = getelementptr inbounds [16 x i32], [16 x i32]* %9, i64 0, i64 5
  %169 = load i32, i32* %168, align 4
  %170 = call i32 @_Z11GGTransformjjjjjjj(i32 %164, i32 %165, i32 %166, i32 %167, i32 %169, i32 5, i32 -701558691)
  store i32 %170, i32* %5, align 4
  %171 = load i32, i32* %8, align 4
  %172 = load i32, i32* %5, align 4
  %173 = load i32, i32* %6, align 4
  %174 = load i32, i32* %7, align 4
  %175 = getelementptr inbounds [16 x i32], [16 x i32]* %9, i64 0, i64 10
  %176 = load i32, i32* %175, align 8
  %177 = call i32 @_Z11GGTransformjjjjjjj(i32 %171, i32 %172, i32 %173, i32 %174, i32 %176, i32 9, i32 38016083)
  store i32 %177, i32* %8, align 4
  %178 = load i32, i32* %7, align 4
  %179 = load i32, i32* %8, align 4
  %180 = load i32, i32* %5, align 4
  %181 = load i32, i32* %6, align 4
  %182 = getelementptr inbounds [16 x i32], [16 x i32]* %9, i64 0, i64 15
  %183 = load i32, i32* %182, align 4
  %184 = call i32 @_Z11GGTransformjjjjjjj(i32 %178, i32 %179, i32 %180, i32 %181, i32 %183, i32 14, i32 -660478335)
  store i32 %184, i32* %7, align 4
  %185 = load i32, i32* %6, align 4
  %186 = load i32, i32* %7, align 4
  %187 = load i32, i32* %8, align 4
  %188 = load i32, i32* %5, align 4
  %189 = getelementptr inbounds [16 x i32], [16 x i32]* %9, i64 0, i64 4
  %190 = load i32, i32* %189, align 16
  %191 = call i32 @_Z11GGTransformjjjjjjj(i32 %185, i32 %186, i32 %187, i32 %188, i32 %190, i32 20, i32 -405537848)
  store i32 %191, i32* %6, align 4
  %192 = load i32, i32* %5, align 4
  %193 = load i32, i32* %6, align 4
  %194 = load i32, i32* %7, align 4
  %195 = load i32, i32* %8, align 4
  %196 = getelementptr inbounds [16 x i32], [16 x i32]* %9, i64 0, i64 9
  %197 = load i32, i32* %196, align 4
  %198 = call i32 @_Z11GGTransformjjjjjjj(i32 %192, i32 %193, i32 %194, i32 %195, i32 %197, i32 5, i32 568446438)
  store i32 %198, i32* %5, align 4
  %199 = load i32, i32* %8, align 4
  %200 = load i32, i32* %5, align 4
  %201 = load i32, i32* %6, align 4
  %202 = load i32, i32* %7, align 4
  %203 = getelementptr inbounds [16 x i32], [16 x i32]* %9, i64 0, i64 14
  %204 = load i32, i32* %203, align 8
  %205 = call i32 @_Z11GGTransformjjjjjjj(i32 %199, i32 %200, i32 %201, i32 %202, i32 %204, i32 9, i32 -1019803690)
  store i32 %205, i32* %8, align 4
  %206 = load i32, i32* %7, align 4
  %207 = load i32, i32* %8, align 4
  %208 = load i32, i32* %5, align 4
  %209 = load i32, i32* %6, align 4
  %210 = getelementptr inbounds [16 x i32], [16 x i32]* %9, i64 0, i64 3
  %211 = load i32, i32* %210, align 4
  %212 = call i32 @_Z11GGTransformjjjjjjj(i32 %206, i32 %207, i32 %208, i32 %209, i32 %211, i32 14, i32 -187363961)
  store i32 %212, i32* %7, align 4
  %213 = load i32, i32* %6, align 4
  %214 = load i32, i32* %7, align 4
  %215 = load i32, i32* %8, align 4
  %216 = load i32, i32* %5, align 4
  %217 = getelementptr inbounds [16 x i32], [16 x i32]* %9, i64 0, i64 8
  %218 = load i32, i32* %217, align 16
  %219 = call i32 @_Z11GGTransformjjjjjjj(i32 %213, i32 %214, i32 %215, i32 %216, i32 %218, i32 20, i32 1163531501)
  store i32 %219, i32* %6, align 4
  %220 = load i32, i32* %5, align 4
  %221 = load i32, i32* %6, align 4
  %222 = load i32, i32* %7, align 4
  %223 = load i32, i32* %8, align 4
  %224 = getelementptr inbounds [16 x i32], [16 x i32]* %9, i64 0, i64 13
  %225 = load i32, i32* %224, align 4
  %226 = call i32 @_Z11GGTransformjjjjjjj(i32 %220, i32 %221, i32 %222, i32 %223, i32 %225, i32 5, i32 -1444681467)
  store i32 %226, i32* %5, align 4
  %227 = load i32, i32* %8, align 4
  %228 = load i32, i32* %5, align 4
  %229 = load i32, i32* %6, align 4
  %230 = load i32, i32* %7, align 4
  %231 = getelementptr inbounds [16 x i32], [16 x i32]* %9, i64 0, i64 2
  %232 = load i32, i32* %231, align 8
  %233 = call i32 @_Z11GGTransformjjjjjjj(i32 %227, i32 %228, i32 %229, i32 %230, i32 %232, i32 9, i32 -51403784)
  store i32 %233, i32* %8, align 4
  %234 = load i32, i32* %7, align 4
  %235 = load i32, i32* %8, align 4
  %236 = load i32, i32* %5, align 4
  %237 = load i32, i32* %6, align 4
  %238 = getelementptr inbounds [16 x i32], [16 x i32]* %9, i64 0, i64 7
  %239 = load i32, i32* %238, align 4
  %240 = call i32 @_Z11GGTransformjjjjjjj(i32 %234, i32 %235, i32 %236, i32 %237, i32 %239, i32 14, i32 1735328473)
  store i32 %240, i32* %7, align 4
  %241 = load i32, i32* %6, align 4
  %242 = load i32, i32* %7, align 4
  %243 = load i32, i32* %8, align 4
  %244 = load i32, i32* %5, align 4
  %245 = getelementptr inbounds [16 x i32], [16 x i32]* %9, i64 0, i64 12
  %246 = load i32, i32* %245, align 16
  %247 = call i32 @_Z11GGTransformjjjjjjj(i32 %241, i32 %242, i32 %243, i32 %244, i32 %246, i32 20, i32 -1926607734)
  store i32 %247, i32* %6, align 4
  %248 = load i32, i32* %5, align 4
  %249 = load i32, i32* %6, align 4
  %250 = load i32, i32* %7, align 4
  %251 = load i32, i32* %8, align 4
  %252 = getelementptr inbounds [16 x i32], [16 x i32]* %9, i64 0, i64 5
  %253 = load i32, i32* %252, align 4
  %254 = call i32 @_Z11HHTransformjjjjjjj(i32 %248, i32 %249, i32 %250, i32 %251, i32 %253, i32 4, i32 -378558)
  store i32 %254, i32* %5, align 4
  %255 = load i32, i32* %8, align 4
  %256 = load i32, i32* %5, align 4
  %257 = load i32, i32* %6, align 4
  %258 = load i32, i32* %7, align 4
  %259 = getelementptr inbounds [16 x i32], [16 x i32]* %9, i64 0, i64 8
  %260 = load i32, i32* %259, align 16
  %261 = call i32 @_Z11HHTransformjjjjjjj(i32 %255, i32 %256, i32 %257, i32 %258, i32 %260, i32 11, i32 -2022574463)
  store i32 %261, i32* %8, align 4
  %262 = load i32, i32* %7, align 4
  %263 = load i32, i32* %8, align 4
  %264 = load i32, i32* %5, align 4
  %265 = load i32, i32* %6, align 4
  %266 = getelementptr inbounds [16 x i32], [16 x i32]* %9, i64 0, i64 11
  %267 = load i32, i32* %266, align 4
  %268 = call i32 @_Z11HHTransformjjjjjjj(i32 %262, i32 %263, i32 %264, i32 %265, i32 %267, i32 16, i32 1839030562)
  store i32 %268, i32* %7, align 4
  %269 = load i32, i32* %6, align 4
  %270 = load i32, i32* %7, align 4
  %271 = load i32, i32* %8, align 4
  %272 = load i32, i32* %5, align 4
  %273 = getelementptr inbounds [16 x i32], [16 x i32]* %9, i64 0, i64 14
  %274 = load i32, i32* %273, align 8
  %275 = call i32 @_Z11HHTransformjjjjjjj(i32 %269, i32 %270, i32 %271, i32 %272, i32 %274, i32 23, i32 -35309556)
  store i32 %275, i32* %6, align 4
  %276 = load i32, i32* %5, align 4
  %277 = load i32, i32* %6, align 4
  %278 = load i32, i32* %7, align 4
  %279 = load i32, i32* %8, align 4
  %280 = getelementptr inbounds [16 x i32], [16 x i32]* %9, i64 0, i64 1
  %281 = load i32, i32* %280, align 4
  %282 = call i32 @_Z11HHTransformjjjjjjj(i32 %276, i32 %277, i32 %278, i32 %279, i32 %281, i32 4, i32 -1530992060)
  store i32 %282, i32* %5, align 4
  %283 = load i32, i32* %8, align 4
  %284 = load i32, i32* %5, align 4
  %285 = load i32, i32* %6, align 4
  %286 = load i32, i32* %7, align 4
  %287 = getelementptr inbounds [16 x i32], [16 x i32]* %9, i64 0, i64 4
  %288 = load i32, i32* %287, align 16
  %289 = call i32 @_Z11HHTransformjjjjjjj(i32 %283, i32 %284, i32 %285, i32 %286, i32 %288, i32 11, i32 1272893353)
  store i32 %289, i32* %8, align 4
  %290 = load i32, i32* %7, align 4
  %291 = load i32, i32* %8, align 4
  %292 = load i32, i32* %5, align 4
  %293 = load i32, i32* %6, align 4
  %294 = getelementptr inbounds [16 x i32], [16 x i32]* %9, i64 0, i64 7
  %295 = load i32, i32* %294, align 4
  %296 = call i32 @_Z11HHTransformjjjjjjj(i32 %290, i32 %291, i32 %292, i32 %293, i32 %295, i32 16, i32 -155497632)
  store i32 %296, i32* %7, align 4
  %297 = load i32, i32* %6, align 4
  %298 = load i32, i32* %7, align 4
  %299 = load i32, i32* %8, align 4
  %300 = load i32, i32* %5, align 4
  %301 = getelementptr inbounds [16 x i32], [16 x i32]* %9, i64 0, i64 10
  %302 = load i32, i32* %301, align 8
  %303 = call i32 @_Z11HHTransformjjjjjjj(i32 %297, i32 %298, i32 %299, i32 %300, i32 %302, i32 23, i32 -1094730640)
  store i32 %303, i32* %6, align 4
  %304 = load i32, i32* %5, align 4
  %305 = load i32, i32* %6, align 4
  %306 = load i32, i32* %7, align 4
  %307 = load i32, i32* %8, align 4
  %308 = getelementptr inbounds [16 x i32], [16 x i32]* %9, i64 0, i64 13
  %309 = load i32, i32* %308, align 4
  %310 = call i32 @_Z11HHTransformjjjjjjj(i32 %304, i32 %305, i32 %306, i32 %307, i32 %309, i32 4, i32 681279174)
  store i32 %310, i32* %5, align 4
  %311 = load i32, i32* %8, align 4
  %312 = load i32, i32* %5, align 4
  %313 = load i32, i32* %6, align 4
  %314 = load i32, i32* %7, align 4
  %315 = getelementptr inbounds [16 x i32], [16 x i32]* %9, i64 0, i64 0
  %316 = load i32, i32* %315, align 16
  %317 = call i32 @_Z11HHTransformjjjjjjj(i32 %311, i32 %312, i32 %313, i32 %314, i32 %316, i32 11, i32 -358537222)
  store i32 %317, i32* %8, align 4
  %318 = load i32, i32* %7, align 4
  %319 = load i32, i32* %8, align 4
  %320 = load i32, i32* %5, align 4
  %321 = load i32, i32* %6, align 4
  %322 = getelementptr inbounds [16 x i32], [16 x i32]* %9, i64 0, i64 3
  %323 = load i32, i32* %322, align 4
  %324 = call i32 @_Z11HHTransformjjjjjjj(i32 %318, i32 %319, i32 %320, i32 %321, i32 %323, i32 16, i32 -722521979)
  store i32 %324, i32* %7, align 4
  %325 = load i32, i32* %6, align 4
  %326 = load i32, i32* %7, align 4
  %327 = load i32, i32* %8, align 4
  %328 = load i32, i32* %5, align 4
  %329 = getelementptr inbounds [16 x i32], [16 x i32]* %9, i64 0, i64 6
  %330 = load i32, i32* %329, align 8
  %331 = call i32 @_Z11HHTransformjjjjjjj(i32 %325, i32 %326, i32 %327, i32 %328, i32 %330, i32 23, i32 76029189)
  store i32 %331, i32* %6, align 4
  %332 = load i32, i32* %5, align 4
  %333 = load i32, i32* %6, align 4
  %334 = load i32, i32* %7, align 4
  %335 = load i32, i32* %8, align 4
  %336 = getelementptr inbounds [16 x i32], [16 x i32]* %9, i64 0, i64 9
  %337 = load i32, i32* %336, align 4
  %338 = call i32 @_Z11HHTransformjjjjjjj(i32 %332, i32 %333, i32 %334, i32 %335, i32 %337, i32 4, i32 -640364487)
  store i32 %338, i32* %5, align 4
  %339 = load i32, i32* %8, align 4
  %340 = load i32, i32* %5, align 4
  %341 = load i32, i32* %6, align 4
  %342 = load i32, i32* %7, align 4
  %343 = getelementptr inbounds [16 x i32], [16 x i32]* %9, i64 0, i64 12
  %344 = load i32, i32* %343, align 16
  %345 = call i32 @_Z11HHTransformjjjjjjj(i32 %339, i32 %340, i32 %341, i32 %342, i32 %344, i32 11, i32 -421815835)
  store i32 %345, i32* %8, align 4
  %346 = load i32, i32* %7, align 4
  %347 = load i32, i32* %8, align 4
  %348 = load i32, i32* %5, align 4
  %349 = load i32, i32* %6, align 4
  %350 = getelementptr inbounds [16 x i32], [16 x i32]* %9, i64 0, i64 15
  %351 = load i32, i32* %350, align 4
  %352 = call i32 @_Z11HHTransformjjjjjjj(i32 %346, i32 %347, i32 %348, i32 %349, i32 %351, i32 16, i32 530742520)
  store i32 %352, i32* %7, align 4
  %353 = load i32, i32* %6, align 4
  %354 = load i32, i32* %7, align 4
  %355 = load i32, i32* %8, align 4
  %356 = load i32, i32* %5, align 4
  %357 = getelementptr inbounds [16 x i32], [16 x i32]* %9, i64 0, i64 2
  %358 = load i32, i32* %357, align 8
  %359 = call i32 @_Z11HHTransformjjjjjjj(i32 %353, i32 %354, i32 %355, i32 %356, i32 %358, i32 23, i32 -995338651)
  store i32 %359, i32* %6, align 4
  %360 = load i32, i32* %5, align 4
  %361 = load i32, i32* %6, align 4
  %362 = load i32, i32* %7, align 4
  %363 = load i32, i32* %8, align 4
  %364 = getelementptr inbounds [16 x i32], [16 x i32]* %9, i64 0, i64 0
  %365 = load i32, i32* %364, align 16
  %366 = call i32 @_Z11IITransformjjjjjjj(i32 %360, i32 %361, i32 %362, i32 %363, i32 %365, i32 6, i32 -198630844)
  store i32 %366, i32* %5, align 4
  %367 = load i32, i32* %8, align 4
  %368 = load i32, i32* %5, align 4
  %369 = load i32, i32* %6, align 4
  %370 = load i32, i32* %7, align 4
  %371 = getelementptr inbounds [16 x i32], [16 x i32]* %9, i64 0, i64 7
  %372 = load i32, i32* %371, align 4
  %373 = call i32 @_Z11IITransformjjjjjjj(i32 %367, i32 %368, i32 %369, i32 %370, i32 %372, i32 10, i32 1126891415)
  store i32 %373, i32* %8, align 4
  %374 = load i32, i32* %7, align 4
  %375 = load i32, i32* %8, align 4
  %376 = load i32, i32* %5, align 4
  %377 = load i32, i32* %6, align 4
  %378 = getelementptr inbounds [16 x i32], [16 x i32]* %9, i64 0, i64 14
  %379 = load i32, i32* %378, align 8
  %380 = call i32 @_Z11IITransformjjjjjjj(i32 %374, i32 %375, i32 %376, i32 %377, i32 %379, i32 15, i32 -1416354905)
  store i32 %380, i32* %7, align 4
  %381 = load i32, i32* %6, align 4
  %382 = load i32, i32* %7, align 4
  %383 = load i32, i32* %8, align 4
  %384 = load i32, i32* %5, align 4
  %385 = getelementptr inbounds [16 x i32], [16 x i32]* %9, i64 0, i64 5
  %386 = load i32, i32* %385, align 4
  %387 = call i32 @_Z11IITransformjjjjjjj(i32 %381, i32 %382, i32 %383, i32 %384, i32 %386, i32 21, i32 -57434055)
  store i32 %387, i32* %6, align 4
  %388 = load i32, i32* %5, align 4
  %389 = load i32, i32* %6, align 4
  %390 = load i32, i32* %7, align 4
  %391 = load i32, i32* %8, align 4
  %392 = getelementptr inbounds [16 x i32], [16 x i32]* %9, i64 0, i64 12
  %393 = load i32, i32* %392, align 16
  %394 = call i32 @_Z11IITransformjjjjjjj(i32 %388, i32 %389, i32 %390, i32 %391, i32 %393, i32 6, i32 1700485571)
  store i32 %394, i32* %5, align 4
  %395 = load i32, i32* %8, align 4
  %396 = load i32, i32* %5, align 4
  %397 = load i32, i32* %6, align 4
  %398 = load i32, i32* %7, align 4
  %399 = getelementptr inbounds [16 x i32], [16 x i32]* %9, i64 0, i64 3
  %400 = load i32, i32* %399, align 4
  %401 = call i32 @_Z11IITransformjjjjjjj(i32 %395, i32 %396, i32 %397, i32 %398, i32 %400, i32 10, i32 -1894986606)
  store i32 %401, i32* %8, align 4
  %402 = load i32, i32* %7, align 4
  %403 = load i32, i32* %8, align 4
  %404 = load i32, i32* %5, align 4
  %405 = load i32, i32* %6, align 4
  %406 = getelementptr inbounds [16 x i32], [16 x i32]* %9, i64 0, i64 10
  %407 = load i32, i32* %406, align 8
  %408 = call i32 @_Z11IITransformjjjjjjj(i32 %402, i32 %403, i32 %404, i32 %405, i32 %407, i32 15, i32 -1051523)
  store i32 %408, i32* %7, align 4
  %409 = load i32, i32* %6, align 4
  %410 = load i32, i32* %7, align 4
  %411 = load i32, i32* %8, align 4
  %412 = load i32, i32* %5, align 4
  %413 = getelementptr inbounds [16 x i32], [16 x i32]* %9, i64 0, i64 1
  %414 = load i32, i32* %413, align 4
  %415 = call i32 @_Z11IITransformjjjjjjj(i32 %409, i32 %410, i32 %411, i32 %412, i32 %414, i32 21, i32 -2054922799)
  store i32 %415, i32* %6, align 4
  %416 = load i32, i32* %5, align 4
  %417 = load i32, i32* %6, align 4
  %418 = load i32, i32* %7, align 4
  %419 = load i32, i32* %8, align 4
  %420 = getelementptr inbounds [16 x i32], [16 x i32]* %9, i64 0, i64 8
  %421 = load i32, i32* %420, align 16
  %422 = call i32 @_Z11IITransformjjjjjjj(i32 %416, i32 %417, i32 %418, i32 %419, i32 %421, i32 6, i32 1873313359)
  store i32 %422, i32* %5, align 4
  %423 = load i32, i32* %8, align 4
  %424 = load i32, i32* %5, align 4
  %425 = load i32, i32* %6, align 4
  %426 = load i32, i32* %7, align 4
  %427 = getelementptr inbounds [16 x i32], [16 x i32]* %9, i64 0, i64 15
  %428 = load i32, i32* %427, align 4
  %429 = call i32 @_Z11IITransformjjjjjjj(i32 %423, i32 %424, i32 %425, i32 %426, i32 %428, i32 10, i32 -30611744)
  store i32 %429, i32* %8, align 4
  %430 = load i32, i32* %7, align 4
  %431 = load i32, i32* %8, align 4
  %432 = load i32, i32* %5, align 4
  %433 = load i32, i32* %6, align 4
  %434 = getelementptr inbounds [16 x i32], [16 x i32]* %9, i64 0, i64 6
  %435 = load i32, i32* %434, align 8
  %436 = call i32 @_Z11IITransformjjjjjjj(i32 %430, i32 %431, i32 %432, i32 %433, i32 %435, i32 15, i32 -1560198380)
  store i32 %436, i32* %7, align 4
  %437 = load i32, i32* %6, align 4
  %438 = load i32, i32* %7, align 4
  %439 = load i32, i32* %8, align 4
  %440 = load i32, i32* %5, align 4
  %441 = getelementptr inbounds [16 x i32], [16 x i32]* %9, i64 0, i64 13
  %442 = load i32, i32* %441, align 4
  %443 = call i32 @_Z11IITransformjjjjjjj(i32 %437, i32 %438, i32 %439, i32 %440, i32 %442, i32 21, i32 1309151649)
  store i32 %443, i32* %6, align 4
  %444 = load i32, i32* %5, align 4
  %445 = load i32, i32* %6, align 4
  %446 = load i32, i32* %7, align 4
  %447 = load i32, i32* %8, align 4
  %448 = getelementptr inbounds [16 x i32], [16 x i32]* %9, i64 0, i64 4
  %449 = load i32, i32* %448, align 16
  %450 = call i32 @_Z11IITransformjjjjjjj(i32 %444, i32 %445, i32 %446, i32 %447, i32 %449, i32 6, i32 -145523070)
  store i32 %450, i32* %5, align 4
  %451 = load i32, i32* %8, align 4
  %452 = load i32, i32* %5, align 4
  %453 = load i32, i32* %6, align 4
  %454 = load i32, i32* %7, align 4
  %455 = getelementptr inbounds [16 x i32], [16 x i32]* %9, i64 0, i64 11
  %456 = load i32, i32* %455, align 4
  %457 = call i32 @_Z11IITransformjjjjjjj(i32 %451, i32 %452, i32 %453, i32 %454, i32 %456, i32 10, i32 -1120210379)
  store i32 %457, i32* %8, align 4
  %458 = load i32, i32* %7, align 4
  %459 = load i32, i32* %8, align 4
  %460 = load i32, i32* %5, align 4
  %461 = load i32, i32* %6, align 4
  %462 = getelementptr inbounds [16 x i32], [16 x i32]* %9, i64 0, i64 2
  %463 = load i32, i32* %462, align 8
  %464 = call i32 @_Z11IITransformjjjjjjj(i32 %458, i32 %459, i32 %460, i32 %461, i32 %463, i32 15, i32 718787259)
  store i32 %464, i32* %7, align 4
  %465 = load i32, i32* %6, align 4
  %466 = load i32, i32* %7, align 4
  %467 = load i32, i32* %8, align 4
  %468 = load i32, i32* %5, align 4
  %469 = getelementptr inbounds [16 x i32], [16 x i32]* %9, i64 0, i64 9
  %470 = load i32, i32* %469, align 4
  %471 = call i32 @_Z11IITransformjjjjjjj(i32 %465, i32 %466, i32 %467, i32 %468, i32 %470, i32 21, i32 -343485551)
  store i32 %471, i32* %6, align 4
  %472 = load i32, i32* %5, align 4
  %473 = load i32*, i32** %3, align 8
  %474 = getelementptr inbounds i32, i32* %473, i64 0
  %475 = load i32, i32* %474, align 4
  %476 = add i32 %475, %472
  store i32 %476, i32* %474, align 4
  %477 = load i32, i32* %6, align 4
  %478 = load i32*, i32** %3, align 8
  %479 = getelementptr inbounds i32, i32* %478, i64 1
  %480 = load i32, i32* %479, align 4
  %481 = add i32 %480, %477
  store i32 %481, i32* %479, align 4
  %482 = load i32, i32* %7, align 4
  %483 = load i32*, i32** %3, align 8
  %484 = getelementptr inbounds i32, i32* %483, i64 2
  %485 = load i32, i32* %484, align 4
  %486 = add i32 %485, %482
  store i32 %486, i32* %484, align 4
  %487 = load i32, i32* %8, align 4
  %488 = load i32*, i32** %3, align 8
  %489 = getelementptr inbounds i32, i32* %488, i64 3
  %490 = load i32, i32* %489, align 4
  %491 = add i32 %490, %487
  store i32 %491, i32* %489, align 4
  %492 = getelementptr inbounds [16 x i32], [16 x i32]* %9, i32 0, i32 0
  %493 = bitcast i32* %492 to i8*
  call void @_Z9MD5MemSetPhij(i8* %493, i32 0, i32 64)
  ret void
}

; Function Attrs: noinline nounwind optnone ssp uwtable
define void @_Z9MD5UpdatePjS_PhS0_j(i32*, i32*, i8*, i8*, i32) #0 {
  %6 = alloca i32*, align 8
  %7 = alloca i32*, align 8
  %8 = alloca i8*, align 8
  %9 = alloca i8*, align 8
  %10 = alloca i32, align 4
  %11 = alloca i32, align 4
  %12 = alloca i32, align 4
  %13 = alloca i32, align 4
  store i32* %0, i32** %6, align 8
  store i32* %1, i32** %7, align 8
  store i8* %2, i8** %8, align 8
  store i8* %3, i8** %9, align 8
  store i32 %4, i32* %10, align 4
  %14 = load i32*, i32** %7, align 8
  %15 = getelementptr inbounds i32, i32* %14, i64 0
  %16 = load i32, i32* %15, align 4
  %17 = lshr i32 %16, 3
  %18 = and i32 %17, 63
  store i32 %18, i32* %12, align 4
  %19 = load i32, i32* %10, align 4
  %20 = shl i32 %19, 3
  %21 = load i32*, i32** %7, align 8
  %22 = getelementptr inbounds i32, i32* %21, i64 0
  %23 = load i32, i32* %22, align 4
  %24 = add i32 %23, %20
  store i32 %24, i32* %22, align 4
  %25 = load i32, i32* %10, align 4
  %26 = shl i32 %25, 3
  %27 = icmp ult i32 %24, %26
  br i1 %27, label %28, label %33

; <label>:28:                                     ; preds = %5
  %29 = load i32*, i32** %7, align 8
  %30 = getelementptr inbounds i32, i32* %29, i64 1
  %31 = load i32, i32* %30, align 4
  %32 = add i32 %31, 1
  store i32 %32, i32* %30, align 4
  br label %33

; <label>:33:                                     ; preds = %28, %5
  %34 = load i32, i32* %10, align 4
  %35 = lshr i32 %34, 29
  %36 = load i32*, i32** %7, align 8
  %37 = getelementptr inbounds i32, i32* %36, i64 1
  %38 = load i32, i32* %37, align 4
  %39 = add i32 %38, %35
  store i32 %39, i32* %37, align 4
  %40 = load i32, i32* %12, align 4
  %41 = sub i32 64, %40
  store i32 %41, i32* %13, align 4
  %42 = load i32, i32* %10, align 4
  %43 = load i32, i32* %13, align 4
  %44 = icmp uge i32 %42, %43
  br i1 %44, label %45, label %70

; <label>:45:                                     ; preds = %33
  %46 = load i8*, i8** %8, align 8
  %47 = load i32, i32* %12, align 4
  %48 = zext i32 %47 to i64
  %49 = getelementptr inbounds i8, i8* %46, i64 %48
  %50 = load i8*, i8** %9, align 8
  %51 = load i32, i32* %13, align 4
  call void @_Z9MD5MemCpyPhS_j(i8* %49, i8* %50, i32 %51)
  %52 = load i32*, i32** %6, align 8
  %53 = load i8*, i8** %8, align 8
  call void @_Z12MD5TransformPjPh(i32* %52, i8* %53)
  %54 = load i32, i32* %13, align 4
  store i32 %54, i32* %11, align 4
  br label %55

; <label>:55:                                     ; preds = %66, %45
  %56 = load i32, i32* %11, align 4
  %57 = add i32 %56, 63
  %58 = load i32, i32* %10, align 4
  %59 = icmp ult i32 %57, %58
  br i1 %59, label %60, label %69

; <label>:60:                                     ; preds = %55
  %61 = load i32*, i32** %6, align 8
  %62 = load i8*, i8** %9, align 8
  %63 = load i32, i32* %11, align 4
  %64 = zext i32 %63 to i64
  %65 = getelementptr inbounds i8, i8* %62, i64 %64
  call void @_Z12MD5TransformPjPh(i32* %61, i8* %65)
  br label %66

; <label>:66:                                     ; preds = %60
  %67 = load i32, i32* %11, align 4
  %68 = add i32 %67, 64
  store i32 %68, i32* %11, align 4
  br label %55

; <label>:69:                                     ; preds = %55
  store i32 0, i32* %12, align 4
  br label %71

; <label>:70:                                     ; preds = %33
  store i32 0, i32* %11, align 4
  br label %71

; <label>:71:                                     ; preds = %70, %69
  %72 = load i8*, i8** %8, align 8
  %73 = load i32, i32* %12, align 4
  %74 = zext i32 %73 to i64
  %75 = getelementptr inbounds i8, i8* %72, i64 %74
  %76 = load i8*, i8** %9, align 8
  %77 = load i32, i32* %11, align 4
  %78 = zext i32 %77 to i64
  %79 = getelementptr inbounds i8, i8* %76, i64 %78
  %80 = load i32, i32* %10, align 4
  %81 = load i32, i32* %11, align 4
  %82 = sub i32 %80, %81
  call void @_Z9MD5MemCpyPhS_j(i8* %75, i8* %79, i32 %82)
  ret void
}

; Function Attrs: noinline nounwind optnone ssp uwtable
define void @_Z8MD5FinalPhPjS0_S_(i8*, i32*, i32*, i8*) #0 {
  %5 = alloca i8*, align 8
  %6 = alloca i32*, align 8
  %7 = alloca i32*, align 8
  %8 = alloca i8*, align 8
  %9 = alloca [64 x i8], align 16
  %10 = alloca i32, align 4
  %11 = alloca [8 x i8], align 1
  %12 = alloca i32, align 4
  %13 = alloca i32, align 4
  store i8* %0, i8** %5, align 8
  store i32* %1, i32** %6, align 8
  store i32* %2, i32** %7, align 8
  store i8* %3, i8** %8, align 8
  %14 = getelementptr inbounds [64 x i8], [64 x i8]* %9, i64 0, i64 0
  store i8 -128, i8* %14, align 16
  store i32 1, i32* %10, align 4
  br label %15

; <label>:15:                                     ; preds = %22, %4
  %16 = load i32, i32* %10, align 4
  %17 = icmp ult i32 %16, 64
  br i1 %17, label %18, label %25

; <label>:18:                                     ; preds = %15
  %19 = load i32, i32* %10, align 4
  %20 = zext i32 %19 to i64
  %21 = getelementptr inbounds [64 x i8], [64 x i8]* %9, i64 0, i64 %20
  store i8 0, i8* %21, align 1
  br label %22

; <label>:22:                                     ; preds = %18
  %23 = load i32, i32* %10, align 4
  %24 = add i32 %23, 1
  store i32 %24, i32* %10, align 4
  br label %15

; <label>:25:                                     ; preds = %15
  %26 = getelementptr inbounds [8 x i8], [8 x i8]* %11, i32 0, i32 0
  %27 = load i32*, i32** %7, align 8
  call void @_Z6EncodePhPjj(i8* %26, i32* %27, i32 8)
  %28 = load i32*, i32** %7, align 8
  %29 = getelementptr inbounds i32, i32* %28, i64 0
  %30 = load i32, i32* %29, align 4
  %31 = lshr i32 %30, 3
  %32 = and i32 %31, 63
  store i32 %32, i32* %12, align 4
  %33 = load i32, i32* %12, align 4
  %34 = icmp ult i32 %33, 56
  br i1 %34, label %35, label %38

; <label>:35:                                     ; preds = %25
  %36 = load i32, i32* %12, align 4
  %37 = sub i32 56, %36
  store i32 %37, i32* %13, align 4
  br label %41

; <label>:38:                                     ; preds = %25
  %39 = load i32, i32* %12, align 4
  %40 = sub i32 120, %39
  store i32 %40, i32* %13, align 4
  br label %41

; <label>:41:                                     ; preds = %38, %35
  %42 = load i32*, i32** %6, align 8
  %43 = load i32*, i32** %7, align 8
  %44 = load i8*, i8** %8, align 8
  %45 = getelementptr inbounds [64 x i8], [64 x i8]* %9, i32 0, i32 0
  %46 = load i32, i32* %13, align 4
  call void @_Z9MD5UpdatePjS_PhS0_j(i32* %42, i32* %43, i8* %44, i8* %45, i32 %46)
  %47 = load i32*, i32** %6, align 8
  %48 = load i32*, i32** %7, align 8
  %49 = load i8*, i8** %8, align 8
  %50 = getelementptr inbounds [8 x i8], [8 x i8]* %11, i32 0, i32 0
  call void @_Z9MD5UpdatePjS_PhS0_j(i32* %47, i32* %48, i8* %49, i8* %50, i32 8)
  %51 = load i8*, i8** %5, align 8
  %52 = load i32*, i32** %6, align 8
  call void @_Z6EncodePhPjj(i8* %51, i32* %52, i32 16)
  ret void
}

; Function Attrs: noinline nounwind optnone ssp uwtable
define void @_Z8timeDiffP8timespecS0_S0_(%struct.timespec*, %struct.timespec*, %struct.timespec*) #0 {
  %4 = alloca %struct.timespec*, align 8
  %5 = alloca %struct.timespec*, align 8
  %6 = alloca %struct.timespec*, align 8
  store %struct.timespec* %0, %struct.timespec** %4, align 8
  store %struct.timespec* %1, %struct.timespec** %5, align 8
  store %struct.timespec* %2, %struct.timespec** %6, align 8
  %7 = load %struct.timespec*, %struct.timespec** %5, align 8
  %8 = getelementptr inbounds %struct.timespec, %struct.timespec* %7, i32 0, i32 1
  %9 = load i64, i64* %8, align 8
  %10 = load %struct.timespec*, %struct.timespec** %4, align 8
  %11 = getelementptr inbounds %struct.timespec, %struct.timespec* %10, i32 0, i32 1
  %12 = load i64, i64* %11, align 8
  %13 = sub nsw i64 %9, %12
  %14 = icmp slt i64 %13, 0
  br i1 %14, label %15, label %36

; <label>:15:                                     ; preds = %3
  %16 = load %struct.timespec*, %struct.timespec** %5, align 8
  %17 = getelementptr inbounds %struct.timespec, %struct.timespec* %16, i32 0, i32 0
  %18 = load i64, i64* %17, align 8
  %19 = load %struct.timespec*, %struct.timespec** %4, align 8
  %20 = getelementptr inbounds %struct.timespec, %struct.timespec* %19, i32 0, i32 0
  %21 = load i64, i64* %20, align 8
  %22 = sub nsw i64 %18, %21
  %23 = sub nsw i64 %22, 1
  %24 = load %struct.timespec*, %struct.timespec** %6, align 8
  %25 = getelementptr inbounds %struct.timespec, %struct.timespec* %24, i32 0, i32 0
  store i64 %23, i64* %25, align 8
  %26 = load %struct.timespec*, %struct.timespec** %5, align 8
  %27 = getelementptr inbounds %struct.timespec, %struct.timespec* %26, i32 0, i32 1
  %28 = load i64, i64* %27, align 8
  %29 = add nsw i64 1000000000, %28
  %30 = load %struct.timespec*, %struct.timespec** %4, align 8
  %31 = getelementptr inbounds %struct.timespec, %struct.timespec* %30, i32 0, i32 1
  %32 = load i64, i64* %31, align 8
  %33 = sub nsw i64 %29, %32
  %34 = load %struct.timespec*, %struct.timespec** %6, align 8
  %35 = getelementptr inbounds %struct.timespec, %struct.timespec* %34, i32 0, i32 1
  store i64 %33, i64* %35, align 8
  br label %55

; <label>:36:                                     ; preds = %3
  %37 = load %struct.timespec*, %struct.timespec** %5, align 8
  %38 = getelementptr inbounds %struct.timespec, %struct.timespec* %37, i32 0, i32 0
  %39 = load i64, i64* %38, align 8
  %40 = load %struct.timespec*, %struct.timespec** %4, align 8
  %41 = getelementptr inbounds %struct.timespec, %struct.timespec* %40, i32 0, i32 0
  %42 = load i64, i64* %41, align 8
  %43 = sub nsw i64 %39, %42
  %44 = load %struct.timespec*, %struct.timespec** %6, align 8
  %45 = getelementptr inbounds %struct.timespec, %struct.timespec* %44, i32 0, i32 0
  store i64 %43, i64* %45, align 8
  %46 = load %struct.timespec*, %struct.timespec** %5, align 8
  %47 = getelementptr inbounds %struct.timespec, %struct.timespec* %46, i32 0, i32 1
  %48 = load i64, i64* %47, align 8
  %49 = load %struct.timespec*, %struct.timespec** %4, align 8
  %50 = getelementptr inbounds %struct.timespec, %struct.timespec* %49, i32 0, i32 1
  %51 = load i64, i64* %50, align 8
  %52 = sub nsw i64 %48, %51
  %53 = load %struct.timespec*, %struct.timespec** %6, align 8
  %54 = getelementptr inbounds %struct.timespec, %struct.timespec* %53, i32 0, i32 1
  store i64 %52, i64* %54, align 8
  br label %55

; <label>:55:                                     ; preds = %36, %15
  ret void
}

; Function Attrs: noinline optnone ssp uwtable
define void @_Z11printDigestPhj(i8*, i32) #1 {
  %3 = alloca i8*, align 8
  %4 = alloca i32, align 4
  %5 = alloca i8, align 1
  %6 = alloca i32, align 4
  store i8* %0, i8** %3, align 8
  store i32 %1, i32* %4, align 4
  store i32 0, i32* %6, align 4
  br label %7

; <label>:7:                                      ; preds = %20, %2
  %8 = load i32, i32* %6, align 4
  %9 = load i32, i32* %4, align 4
  %10 = icmp ult i32 %8, %9
  br i1 %10, label %11, label %23

; <label>:11:                                     ; preds = %7
  %12 = load i8*, i8** %3, align 8
  %13 = load i32, i32* %6, align 4
  %14 = zext i32 %13 to i64
  %15 = getelementptr inbounds i8, i8* %12, i64 %14
  %16 = load i8, i8* %15, align 1
  store i8 %16, i8* %5, align 1
  %17 = load i8, i8* %5, align 1
  %18 = zext i8 %17 to i32
  %19 = call i32 (i8*, ...) @printf(i8* getelementptr inbounds ([4 x i8], [4 x i8]* @.str, i32 0, i32 0), i32 %18)
  br label %20

; <label>:20:                                     ; preds = %11
  %21 = load i32, i32* %6, align 4
  %22 = add i32 %21, 1
  store i32 %22, i32* %6, align 4
  br label %7

; <label>:23:                                     ; preds = %7
  ret void
}

declare i32 @printf(i8*, ...) #2

; Function Attrs: noinline norecurse optnone ssp uwtable
define i32 @main() #3 {
  %1 = alloca i32, align 4
  %2 = alloca i8*, align 8
  %3 = alloca [4 x i32], align 16
  %4 = alloca [2 x i32], align 4
  %5 = alloca [20000 x i8], align 16
  %6 = alloca [16 x i8], align 16
  %7 = alloca i32, align 4
  %8 = alloca i32, align 4
  %9 = alloca %struct.timespec, align 8
  %10 = alloca %struct.timespec, align 8
  %11 = alloca %struct.timespec, align 8
  %12 = alloca double, align 8
  store i32 0, i32* %1, align 4
  store i8* getelementptr inbounds ([10213 x i8], [10213 x i8]* @.str.1, i32 0, i32 0), i8** %2, align 8
  %13 = getelementptr inbounds [20000 x i8], [20000 x i8]* %5, i32 0, i32 0
  %14 = load i8*, i8** %2, align 8
  %15 = call i8* @strcpy(i8* %13, i8* %14)
  %16 = load i8*, i8** %2, align 8
  %17 = call i64 @strlen(i8* %16)
  %18 = trunc i64 %17 to i32
  store i32 %18, i32* %7, align 4
  store i32 6, i32* %8, align 4
  %19 = load i32, i32* %8, align 4
  %20 = call i32 @clock_gettime(i32 %19, %struct.timespec* %9)
  %21 = getelementptr inbounds [4 x i32], [4 x i32]* %3, i32 0, i32 0
  %22 = getelementptr inbounds [2 x i32], [2 x i32]* %4, i32 0, i32 0
  call void @_Z7MD5InitPjS_(i32* %21, i32* %22)
  %23 = getelementptr inbounds [4 x i32], [4 x i32]* %3, i32 0, i32 0
  %24 = getelementptr inbounds [2 x i32], [2 x i32]* %4, i32 0, i32 0
  %25 = getelementptr inbounds [20000 x i8], [20000 x i8]* %5, i32 0, i32 0
  %26 = load i8*, i8** %2, align 8
  %27 = load i32, i32* %7, align 4
  call void @_Z9MD5UpdatePjS_PhS0_j(i32* %23, i32* %24, i8* %25, i8* %26, i32 %27)
  %28 = getelementptr inbounds [16 x i8], [16 x i8]* %6, i32 0, i32 0
  %29 = getelementptr inbounds [4 x i32], [4 x i32]* %3, i32 0, i32 0
  %30 = getelementptr inbounds [2 x i32], [2 x i32]* %4, i32 0, i32 0
  %31 = getelementptr inbounds [20000 x i8], [20000 x i8]* %5, i32 0, i32 0
  call void @_Z8MD5FinalPhPjS0_S_(i8* %28, i32* %29, i32* %30, i8* %31)
  %32 = load i32, i32* %8, align 4
  %33 = call i32 @clock_gettime(i32 %32, %struct.timespec* %10)
  call void @_Z8timeDiffP8timespecS0_S0_(%struct.timespec* %9, %struct.timespec* %10, %struct.timespec* %11)
  %34 = getelementptr inbounds %struct.timespec, %struct.timespec* %11, i32 0, i32 0
  %35 = load i64, i64* %34, align 8
  %36 = sitofp i64 %35 to double
  %37 = getelementptr inbounds %struct.timespec, %struct.timespec* %11, i32 0, i32 1
  %38 = load i64, i64* %37, align 8
  %39 = sitofp i64 %38 to double
  %40 = fmul double %39, 1.000000e-09
  %41 = fadd double %36, %40
  store double %41, double* %12, align 8
  %42 = load double, double* %12, align 8
  %43 = call i32 (i8*, ...) @printf(i8* getelementptr inbounds ([32 x i8], [32 x i8]* @.str.2, i32 0, i32 0), double %42)
  %44 = getelementptr inbounds [16 x i8], [16 x i8]* %6, i32 0, i32 0
  call void @_Z11printDigestPhj(i8* %44, i32 16)
  ret i32 0
}

declare i8* @strcpy(i8*, i8*) #2

declare i64 @strlen(i8*) #2

declare i32 @clock_gettime(i32, %struct.timespec*) #2

attributes #0 = { noinline nounwind optnone ssp uwtable "correctly-rounded-divide-sqrt-fp-math"="false" "disable-tail-calls"="false" "less-precise-fpmad"="false" "min-legal-vector-width"="0" "no-frame-pointer-elim"="true" "no-frame-pointer-elim-non-leaf" "no-infs-fp-math"="false" "no-jump-tables"="false" "no-nans-fp-math"="false" "no-signed-zeros-fp-math"="false" "no-trapping-math"="false" "stack-protector-buffer-size"="8" "target-cpu"="penryn" "target-features"="+cx16,+fxsr,+mmx,+sahf,+sse,+sse2,+sse3,+sse4.1,+ssse3,+x87" "unsafe-fp-math"="false" "use-soft-float"="false" }
attributes #1 = { noinline optnone ssp uwtable "correctly-rounded-divide-sqrt-fp-math"="false" "disable-tail-calls"="false" "less-precise-fpmad"="false" "min-legal-vector-width"="0" "no-frame-pointer-elim"="true" "no-frame-pointer-elim-non-leaf" "no-infs-fp-math"="false" "no-jump-tables"="false" "no-nans-fp-math"="false" "no-signed-zeros-fp-math"="false" "no-trapping-math"="false" "stack-protector-buffer-size"="8" "target-cpu"="penryn" "target-features"="+cx16,+fxsr,+mmx,+sahf,+sse,+sse2,+sse3,+sse4.1,+ssse3,+x87" "unsafe-fp-math"="false" "use-soft-float"="false" }
attributes #2 = { "correctly-rounded-divide-sqrt-fp-math"="false" "disable-tail-calls"="false" "less-precise-fpmad"="false" "no-frame-pointer-elim"="true" "no-frame-pointer-elim-non-leaf" "no-infs-fp-math"="false" "no-nans-fp-math"="false" "no-signed-zeros-fp-math"="false" "no-trapping-math"="false" "stack-protector-buffer-size"="8" "target-cpu"="penryn" "target-features"="+cx16,+fxsr,+mmx,+sahf,+sse,+sse2,+sse3,+sse4.1,+ssse3,+x87" "unsafe-fp-math"="false" "use-soft-float"="false" }
attributes #3 = { noinline norecurse optnone ssp uwtable "correctly-rounded-divide-sqrt-fp-math"="false" "disable-tail-calls"="false" "less-precise-fpmad"="false" "min-legal-vector-width"="0" "no-frame-pointer-elim"="true" "no-frame-pointer-elim-non-leaf" "no-infs-fp-math"="false" "no-jump-tables"="false" "no-nans-fp-math"="false" "no-signed-zeros-fp-math"="false" "no-trapping-math"="false" "stack-protector-buffer-size"="8" "target-cpu"="penryn" "target-features"="+cx16,+fxsr,+mmx,+sahf,+sse,+sse2,+sse3,+sse4.1,+ssse3,+x87" "unsafe-fp-math"="false" "use-soft-float"="false" }

!llvm.module.flags = !{!0, !1}
!llvm.ident = !{!2}

!0 = !{i32 1, !"wchar_size", i32 4}
!1 = !{i32 7, !"PIC Level", i32 2}
!2 = !{!"clang version 8.0.1 (tags/RELEASE_801/final)"}
